
Microsoft (R) Windows Debugger Version 10.0.15063.400 X86
Copyright (c) Microsoft Corporation. All rights reserved.

CommandLine: C:\emet2\emet2.exe

************* Symbol Path validation summary **************
Response                         Time (ms)     Location
Deferred                                       SRV*C:\windbgsymbols*http://msdl.microsoft.com/download/symbols
Symbol search path is: SRV*C:\windbgsymbols*http://msdl.microsoft.com/download/symbols
Executable search path is: 
ModLoad: 01390000 01396000   emet2.exe
ModLoad: 77b10000 77c4c000   ntdll.dll
ModLoad: 776e0000 777b4000   C:\Windows\system32\kernel32.dll
ModLoad: 75d70000 75dba000   C:\Windows\system32\KERNELBASE.dll
ModLoad: 60ed0000 60fbe000   C:\Windows\system32\MSVCR120.dll
(13bc.15cc): Break instruction exception - code 80000003 (first chance)
No .natvis files found at C:\Program Files\Debugging Tools for Windows (x86)\Visualizers.
No .natvis files found at C:\Users\user\AppData\Local\Dbg\Visualizers.
eax=00000000 ebx=00000000 ecx=002df39c edx=77b570b4 esi=fffffffe edi=00000000
eip=77bb04f6 esp=002df3b8 ebp=002df3e4 iopl=0         nv up ei pl zr na pe nc
cs=001b  ss=0023  ds=0023  es=0023  fs=003b  gs=0000             efl=00000246
ntdll!LdrpDoDebuggerBreak+0x2c:
77bb04f6 cc              int     3
0:000> bp emet2!main
*** WARNING: Unable to verify checksum for emet2.exe
0:000> g
ModLoad: 75b90000 75bdc000   C:\Windows\system32\apphelp.dll
ModLoad: 659e0000 65b80000   C:\Windows\AppPatch\EMET.DLL
ModLoad: 77300000 773ac000   C:\Windows\system32\msvcrt.dll
ModLoad: 77ca0000 77d40000   C:\Windows\system32\ADVAPI32.dll
ModLoad: 76380000 76399000   C:\Windows\SYSTEM32\sechost.dll
ModLoad: 75f60000 76001000   C:\Windows\system32\RPCRT4.dll
(13bc.15cc): Guard page violation - code 80000001 (first chance)
First chance exceptions are reported before any exception handling.
This exception may be expected and handled.
eax=002df53c ebx=00000000 ecx=01391365 edx=00000000 esi=01391324 edi=00000000
eip=75d78eb5 esp=002df510 ebp=002df528 iopl=0         nv up ei pl nz ac pe nc
cs=001b  ss=0023  ds=0023  es=0023  fs=003b  gs=0000             efl=00010216
KERNELBASE!VirtualQueryEx+0x17:
75d78eb5 ff15d811d775    call    dword ptr [KERNELBASE!_imp__NtQueryVirtualMemory (75d711d8)] ds:0023:75d711d8={ntdll!NtQueryVirtualMemory (77b56258)}
0:000> g
(13bc.15cc): Single step exception - code 80000004 (first chance)
First chance exceptions are reported before any exception handling.
This exception may be expected and handled.
eax=002df53c ebx=00000000 ecx=01391365 edx=00000000 esi=01391324 edi=00000000
eip=77b56258 esp=002df50c ebp=002df528 iopl=0         nv up ei pl nz ac pe nc
cs=001b  ss=0023  ds=0023  es=0023  fs=003b  gs=0000             efl=00000216
ntdll!NtQueryVirtualMemory:
77b56258 b80b010000      mov     eax,10Bh
0:000> .restart

************* Symbol Path validation summary **************
Response                         Time (ms)     Location
Deferred                                       SRV*C:\windbgsymbols*http://msdl.microsoft.com/download/symbols
CommandLine: C:\emet2\emet2.exe

************* Symbol Path validation summary **************
Response                         Time (ms)     Location
Deferred                                       SRV*C:\windbgsymbols*http://msdl.microsoft.com/download/symbols
Symbol search path is: SRV*C:\windbgsymbols*http://msdl.microsoft.com/download/symbols
Executable search path is: 
ModLoad: 00130000 00136000   emet2.exe
ModLoad: 77b10000 77c4c000   ntdll.dll
ModLoad: 776e0000 777b4000   C:\Windows\system32\kernel32.dll
ModLoad: 75d70000 75dba000   C:\Windows\system32\KERNELBASE.dll
ModLoad: 60ed0000 60fbe000   C:\Windows\system32\MSVCR120.dll
(1060.1034): Break instruction exception - code 80000003 (first chance)
eax=00000000 ebx=00000000 ecx=0030f8cc edx=77b570b4 esi=fffffffe edi=00000000
eip=77bb04f6 esp=0030f8e8 ebp=0030f914 iopl=0         nv up ei pl zr na pe nc
cs=001b  ss=0023  ds=0023  es=0023  fs=003b  gs=0000             efl=00000246
ntdll!LdrpDoDebuggerBreak+0x2c:
77bb04f6 cc              int     3
0:000> bu emet2!main
*** WARNING: Unable to verify checksum for emet2.exe
0:000> g
ModLoad: 75b90000 75bdc000   C:\Windows\system32\apphelp.dll
ModLoad: 65ce0000 65e80000   C:\Windows\AppPatch\EMET.DLL
ModLoad: 77300000 773ac000   C:\Windows\system32\msvcrt.dll
ModLoad: 77ca0000 77d40000   C:\Windows\system32\ADVAPI32.dll
ModLoad: 76380000 76399000   C:\Windows\SYSTEM32\sechost.dll
ModLoad: 75f60000 76001000   C:\Windows\system32\RPCRT4.dll
(1060.1034): Guard page violation - code 80000001 (first chance)
First chance exceptions are reported before any exception handling.
This exception may be expected and handled.
eax=0030fa6c ebx=00000000 ecx=00131365 edx=00000000 esi=00131324 edi=00000000
eip=75d78eb5 esp=0030fa40 ebp=0030fa58 iopl=0         nv up ei pl nz ac po nc
cs=001b  ss=0023  ds=0023  es=0023  fs=003b  gs=0000             efl=00010212
KERNELBASE!VirtualQueryEx+0x17:
75d78eb5 ff15d811d775    call    dword ptr [KERNELBASE!_imp__NtQueryVirtualMemory (75d711d8)] ds:0023:75d711d8={ntdll!NtQueryVirtualMemory (77b56258)}
0:000> p
WARNING: This break is not a step/trace completion.
The last command has been cleared to prevent
accidental continuation of this unrelated event.
Check the event, location and thread before resuming.
(1060.1034): Single step exception - code 80000004 (first chance)
First chance exceptions are reported before any exception handling.
This exception may be expected and handled.
eax=0030fa6c ebx=00000000 ecx=00131365 edx=00000000 esi=00131324 edi=00000000
eip=77b56258 esp=0030fa3c ebp=0030fa58 iopl=0         nv up ei pl nz ac po nc
cs=001b  ss=0023  ds=0023  es=0023  fs=003b  gs=0000             efl=00000212
ntdll!NtQueryVirtualMemory:
77b56258 b80b010000      mov     eax,10Bh
0:000> 
0:000> p
eax=0000010b ebx=00000000 ecx=00131365 edx=00000000 esi=00131324 edi=00000000
eip=77b5625d esp=0030fa3c ebp=0030fa58 iopl=0         nv up ei pl nz ac po nc
cs=001b  ss=0023  ds=0023  es=0023  fs=003b  gs=0000             efl=00000212
ntdll!NtQueryVirtualMemory+0x5:
77b5625d ba0003fe7f      mov     edx,offset SharedUserData!SystemCallStub (7ffe0300)
0:000> 
eax=0000010b ebx=00000000 ecx=00131365 edx=7ffe0300 esi=00131324 edi=00000000
eip=77b56262 esp=0030fa3c ebp=0030fa58 iopl=0         nv up ei pl nz ac po nc
cs=001b  ss=0023  ds=0023  es=0023  fs=003b  gs=0000             efl=00000212
ntdll!NtQueryVirtualMemory+0xa:
77b56262 ff12            call    dword ptr [edx]      ds:0023:7ffe0300={ntdll!KiFastSystemCall (77b570b0)}
0:000> 
eax=00000000 ebx=00000000 ecx=0030fa38 edx=77b570b4 esi=00131324 edi=00000000
eip=77b56264 esp=0030fa3c ebp=0030fa58 iopl=0         nv up ei pl nz ac po nc
cs=001b  ss=0023  ds=0023  es=0023  fs=003b  gs=0000             efl=00000212
ntdll!NtQueryVirtualMemory+0xc:
77b56264 c21800          ret     18h
0:000> 
eax=00000000 ebx=00000000 ecx=0030fa38 edx=77b570b4 esi=00131324 edi=00000000
eip=75d78ebb esp=0030fa58 ebp=0030fa58 iopl=0         nv up ei pl nz ac po nc
cs=001b  ss=0023  ds=0023  es=0023  fs=003b  gs=0000             efl=00000212
KERNELBASE!VirtualQueryEx+0x1d:
75d78ebb 85c0            test    eax,eax
0:000> 
eax=00000000 ebx=00000000 ecx=0030fa38 edx=77b570b4 esi=00131324 edi=00000000
eip=75d78ebd esp=0030fa58 ebp=0030fa58 iopl=0         nv up ei pl zr na pe nc
cs=001b  ss=0023  ds=0023  es=0023  fs=003b  gs=0000             efl=00000246
KERNELBASE!VirtualQueryEx+0x1f:
75d78ebd 0f8c28110000    jl      KERNELBASE!VirtualQueryEx+0x26 (75d79feb) [br=0]
0:000> 
eax=00000000 ebx=00000000 ecx=0030fa38 edx=77b570b4 esi=00131324 edi=00000000
eip=75d78ec3 esp=0030fa58 ebp=0030fa58 iopl=0         nv up ei pl zr na pe nc
cs=001b  ss=0023  ds=0023  es=0023  fs=003b  gs=0000             efl=00000246
KERNELBASE!VirtualQueryEx+0x21:
75d78ec3 8b4514          mov     eax,dword ptr [ebp+14h] ss:0023:0030fa6c=0000001c
0:000> 
eax=0000001c ebx=00000000 ecx=0030fa38 edx=77b570b4 esi=00131324 edi=00000000
eip=75d78ec6 esp=0030fa58 ebp=0030fa58 iopl=0         nv up ei pl zr na pe nc
cs=001b  ss=0023  ds=0023  es=0023  fs=003b  gs=0000             efl=00000246
KERNELBASE!VirtualQueryEx+0x2e:
75d78ec6 5d              pop     ebp
0:000> 
eax=0000001c ebx=00000000 ecx=0030fa38 edx=77b570b4 esi=00131324 edi=00000000
eip=75d78ec7 esp=0030fa5c ebp=0030fa70 iopl=0         nv up ei pl zr na pe nc
cs=001b  ss=0023  ds=0023  es=0023  fs=003b  gs=0000             efl=00000246
KERNELBASE!VirtualQueryEx+0x2f:
75d78ec7 c21000          ret     10h
0:000> 
eax=0000001c ebx=00000000 ecx=0030fa38 edx=77b570b4 esi=00131324 edi=00000000
eip=75d78ee4 esp=0030fa70 ebp=0030fa70 iopl=0         nv up ei pl zr na pe nc
cs=001b  ss=0023  ds=0023  es=0023  fs=003b  gs=0000             efl=00000246
KERNELBASE!VirtualQuery+0x15:
75d78ee4 5d              pop     ebp
0:000> 
eax=0000001c ebx=00000000 ecx=0030fa38 edx=77b570b4 esi=00131324 edi=00000000
eip=75d78ee5 esp=0030fa74 ebp=0030fab8 iopl=0         nv up ei pl zr na pe nc
cs=001b  ss=0023  ds=0023  es=0023  fs=003b  gs=0000             efl=00000246
KERNELBASE!VirtualQuery+0x16:
75d78ee5 c20c00          ret     0Ch
0:000> 
eax=0000001c ebx=00000000 ecx=0030fa38 edx=77b570b4 esi=00131324 edi=00000000
eip=77733dde esp=0030fa84 ebp=0030fab8 iopl=0         nv up ei pl zr na pe nc
cs=001b  ss=0023  ds=0023  es=0023  fs=003b  gs=0000             efl=00000246
kernel32!BasepFillUEFInfo+0x18:
77733dde 85c0            test    eax,eax
0:000> 
eax=0000001c ebx=00000000 ecx=0030fa38 edx=77b570b4 esi=00131324 edi=00000000
eip=77733de0 esp=0030fa84 ebp=0030fab8 iopl=0         nv up ei pl nz na po nc
cs=001b  ss=0023  ds=0023  es=0023  fs=003b  gs=0000             efl=00000202
kernel32!BasepFillUEFInfo+0x1a:
77733de0 0f84682e0100    je      kernel32!BasepFillUEFInfo+0x85 (77746c4e) [br=0]
0:000> 
eax=0000001c ebx=00000000 ecx=0030fa38 edx=77b570b4 esi=00131324 edi=00000000
eip=77733de6 esp=0030fa84 ebp=0030fab8 iopl=0         nv up ei pl nz na po nc
cs=001b  ss=0023  ds=0023  es=0023  fs=003b  gs=0000             efl=00000202
kernel32!BasepFillUEFInfo+0x1c:
77733de6 f645dcf0        test    byte ptr [ebp-24h],0F0h    ss:0023:0030fa94=80
0:000> 
eax=0000001c ebx=00000000 ecx=0030fa38 edx=77b570b4 esi=00131324 edi=00000000
eip=77733dea esp=0030fa84 ebp=0030fab8 iopl=0         nv up ei ng nz na po nc
cs=001b  ss=0023  ds=0023  es=0023  fs=003b  gs=0000             efl=00000282
kernel32!BasepFillUEFInfo+0x20:
77733dea 0f845e2e0100    je      kernel32!BasepFillUEFInfo+0x85 (77746c4e) [br=0]
0:000> 
eax=0000001c ebx=00000000 ecx=0030fa38 edx=77b570b4 esi=00131324 edi=00000000
eip=77733df0 esp=0030fa84 ebp=0030fab8 iopl=0         nv up ei ng nz na po nc
cs=001b  ss=0023  ds=0023  es=0023  fs=003b  gs=0000             efl=00000282
kernel32!BasepFillUEFInfo+0x22:
77733df0 8b750c          mov     esi,dword ptr [ebp+0Ch] ss:0023:0030fac4=0030fad0
0:000> 
eax=0000001c ebx=00000000 ecx=0030fa38 edx=77b570b4 esi=0030fad0 edi=00000000
eip=77733df3 esp=0030fa84 ebp=0030fab8 iopl=0         nv up ei ng nz na po nc
cs=001b  ss=0023  ds=0023  es=0023  fs=003b  gs=0000             efl=00000282
kernel32!BasepFillUEFInfo+0x25:
77733df3 85f6            test    esi,esi
0:000> 
eax=0000001c ebx=00000000 ecx=0030fa38 edx=77b570b4 esi=0030fad0 edi=00000000
eip=77733df5 esp=0030fa84 ebp=0030fab8 iopl=0         nv up ei pl nz na po nc
cs=001b  ss=0023  ds=0023  es=0023  fs=003b  gs=0000             efl=00000202
kernel32!BasepFillUEFInfo+0x27:
77733df5 7453            je      kernel32!BasepFillUEFInfo+0x80 (77733e4a) [br=0]
0:000> 
eax=0000001c ebx=00000000 ecx=0030fa38 edx=77b570b4 esi=0030fad0 edi=00000000
eip=77733df7 esp=0030fa84 ebp=0030fab8 iopl=0         nv up ei pl nz na po nc
cs=001b  ss=0023  ds=0023  es=0023  fs=003b  gs=0000             efl=00000202
kernel32!BasepFillUEFInfo+0x29:
77733df7 8b3d1c136e77    mov     edi,dword ptr [kernel32!_imp__NtQueryVirtualMemory (776e131c)] ds:0023:776e131c={ntdll!NtQueryVirtualMemory (77b56258)}
0:000> 
eax=0000001c ebx=00000000 ecx=0030fa38 edx=77b570b4 esi=0030fad0 edi=77b56258
eip=77733dfd esp=0030fa84 ebp=0030fab8 iopl=0         nv up ei pl nz na po nc
cs=001b  ss=0023  ds=0023  es=0023  fs=003b  gs=0000             efl=00000202
kernel32!BasepFillUEFInfo+0x2f:
77733dfd 6a00            push    0
0:000> 
eax=0000001c ebx=00000000 ecx=0030fa38 edx=77b570b4 esi=0030fad0 edi=77b56258
eip=77733dff esp=0030fa80 ebp=0030fab8 iopl=0         nv up ei pl nz na po nc
cs=001b  ss=0023  ds=0023  es=0023  fs=003b  gs=0000             efl=00000202
kernel32!BasepFillUEFInfo+0x31:
77733dff 6a10            push    10h
0:000> 
eax=0000001c ebx=00000000 ecx=0030fa38 edx=77b570b4 esi=0030fad0 edi=77b56258
eip=77733e01 esp=0030fa7c ebp=0030fab8 iopl=0         nv up ei pl nz na po nc
cs=001b  ss=0023  ds=0023  es=0023  fs=003b  gs=0000             efl=00000202
kernel32!BasepFillUEFInfo+0x33:
77733e01 8d45f0          lea     eax,[ebp-10h]
0:000> 
eax=0030faa8 ebx=00000000 ecx=0030fa38 edx=77b570b4 esi=0030fad0 edi=77b56258
eip=77733e04 esp=0030fa7c ebp=0030fab8 iopl=0         nv up ei pl nz na po nc
cs=001b  ss=0023  ds=0023  es=0023  fs=003b  gs=0000             efl=00000202
kernel32!BasepFillUEFInfo+0x36:
77733e04 50              push    eax
0:000> 
eax=0030faa8 ebx=00000000 ecx=0030fa38 edx=77b570b4 esi=0030fad0 edi=77b56258
eip=77733e05 esp=0030fa78 ebp=0030fab8 iopl=0         nv up ei pl nz na po nc
cs=001b  ss=0023  ds=0023  es=0023  fs=003b  gs=0000             efl=00000202
kernel32!BasepFillUEFInfo+0x37:
77733e05 6a03            push    3
0:000> 
eax=0030faa8 ebx=00000000 ecx=0030fa38 edx=77b570b4 esi=0030fad0 edi=77b56258
eip=77733e07 esp=0030fa74 ebp=0030fab8 iopl=0         nv up ei pl nz na po nc
cs=001b  ss=0023  ds=0023  es=0023  fs=003b  gs=0000             efl=00000202
kernel32!BasepFillUEFInfo+0x39:
77733e07 ff7508          push    dword ptr [ebp+8]    ss:0023:0030fac0={emet2!__CxxUnhandledExceptionFilter (00131324)}
0:000> 
eax=0030faa8 ebx=00000000 ecx=0030fa38 edx=77b570b4 esi=0030fad0 edi=77b56258
eip=77733e0a esp=0030fa70 ebp=0030fab8 iopl=0         nv up ei pl nz na po nc
cs=001b  ss=0023  ds=0023  es=0023  fs=003b  gs=0000             efl=00000202
kernel32!BasepFillUEFInfo+0x3c:
77733e0a 6aff            push    0FFFFFFFFh
0:000> 
eax=0030faa8 ebx=00000000 ecx=0030fa38 edx=77b570b4 esi=0030fad0 edi=77b56258
eip=77733e0c esp=0030fa6c ebp=0030fab8 iopl=0         nv up ei pl nz na po nc
cs=001b  ss=0023  ds=0023  es=0023  fs=003b  gs=0000             efl=00000202
kernel32!BasepFillUEFInfo+0x3e:
77733e0c ffd7            call    edi {ntdll!NtQueryVirtualMemory (77b56258)}
0:000> 
eax=00000000 ebx=00000000 ecx=0030fa64 edx=77b570b4 esi=0030fad0 edi=77b56258
eip=77733e0e esp=0030fa84 ebp=0030fab8 iopl=0         nv up ei pl nz na po nc
cs=001b  ss=0023  ds=0023  es=0023  fs=003b  gs=0000             efl=00000202
kernel32!BasepFillUEFInfo+0x40:
77733e0e 85c0            test    eax,eax
0:000> 
eax=00000000 ebx=00000000 ecx=0030fa64 edx=77b570b4 esi=0030fad0 edi=77b56258
eip=77733e10 esp=0030fa84 ebp=0030fab8 iopl=0         nv up ei pl zr na pe nc
cs=001b  ss=0023  ds=0023  es=0023  fs=003b  gs=0000             efl=00000246
kernel32!BasepFillUEFInfo+0x42:
77733e10 0f8c382e0100    jl      kernel32!BasepFillUEFInfo+0x85 (77746c4e) [br=0]
0:000> 
eax=00000000 ebx=00000000 ecx=0030fa64 edx=77b570b4 esi=0030fad0 edi=77b56258
eip=77733e16 esp=0030fa84 ebp=0030fab8 iopl=0         nv up ei pl zr na pe nc
cs=001b  ss=0023  ds=0023  es=0023  fs=003b  gs=0000             efl=00000246
kernel32!BasepFillUEFInfo+0x44:
77733e16 8b4dd8          mov     ecx,dword ptr [ebp-28h] ss:0023:0030fa90={emet2!__ImageBase (00130000)}
0:000> 
eax=00000000 ebx=00000000 ecx=00130000 edx=77b570b4 esi=0030fad0 edi=77b56258
eip=77733e19 esp=0030fa84 ebp=0030fab8 iopl=0         nv up ei pl zr na pe nc
cs=001b  ss=0023  ds=0023  es=0023  fs=003b  gs=0000             efl=00000246
kernel32!BasepFillUEFInfo+0x47:
77733e19 8b45ec          mov     eax,dword ptr [ebp-14h] ss:0023:0030faa4=01000000
0:000> 
eax=01000000 ebx=00000000 ecx=00130000 edx=77b570b4 esi=0030fad0 edi=77b56258
eip=77733e1c esp=0030fa84 ebp=0030fab8 iopl=0         nv up ei pl zr na pe nc
cs=001b  ss=0023  ds=0023  es=0023  fs=003b  gs=0000             efl=00000246
kernel32!BasepFillUEFInfo+0x4a:
77733e1c 890e            mov     dword ptr [esi],ecx  ds:0023:0030fad0=00000001
0:000> p
eax=01000000 ebx=00000000 ecx=00130000 edx=77b570b4 esi=0030fad0 edi=77b56258
eip=77733e1e esp=0030fa84 ebp=0030fab8 iopl=0         nv up ei pl zr na pe nc
cs=001b  ss=0023  ds=0023  es=0023  fs=003b  gs=0000             efl=00000246
kernel32!BasepFillUEFInfo+0x4c:
77733e1e 8b4dfc          mov     ecx,dword ptr [ebp-4] ss:0023:0030fab4=00006000
0:000> 
eax=01000000 ebx=00000000 ecx=00006000 edx=77b570b4 esi=0030fad0 edi=77b56258
eip=77733e21 esp=0030fa84 ebp=0030fab8 iopl=0         nv up ei pl zr na pe nc
cs=001b  ss=0023  ds=0023  es=0023  fs=003b  gs=0000             efl=00000246
kernel32!BasepFillUEFInfo+0x4f:
77733e21 894608          mov     dword ptr [esi+8],eax ds:0023:0030fad8=00000000
0:000> 
eax=01000000 ebx=00000000 ecx=00006000 edx=77b570b4 esi=0030fad0 edi=77b56258
eip=77733e24 esp=0030fa84 ebp=0030fab8 iopl=0         nv up ei pl zr na pe nc
cs=001b  ss=0023  ds=0023  es=0023  fs=003b  gs=0000             efl=00000246
kernel32!BasepFillUEFInfo+0x52:
77733e24 894e04          mov     dword ptr [esi+4],ecx ds:0023:0030fad4=00000000
0:000> 
eax=01000000 ebx=00000000 ecx=00006000 edx=77b570b4 esi=0030fad0 edi=77b56258
eip=77733e27 esp=0030fa84 ebp=0030fab8 iopl=0         nv up ei pl zr na pe nc
cs=001b  ss=0023  ds=0023  es=0023  fs=003b  gs=0000             efl=00000246
kernel32!BasepFillUEFInfo+0x55:
77733e27 a900000401      test    eax,1040000h
0:000> 
eax=01000000 ebx=00000000 ecx=00006000 edx=77b570b4 esi=0030fad0 edi=77b56258
eip=77733e2c esp=0030fa84 ebp=0030fab8 iopl=0         nv up ei pl nz na pe nc
cs=001b  ss=0023  ds=0023  es=0023  fs=003b  gs=0000             efl=00000206
kernel32!BasepFillUEFInfo+0x5a:
77733e2c 741c            je      kernel32!BasepFillUEFInfo+0x80 (77733e4a) [br=0]
0:000> 
eax=01000000 ebx=00000000 ecx=00006000 edx=77b570b4 esi=0030fad0 edi=77b56258
eip=77733e2e esp=0030fa84 ebp=0030fab8 iopl=0         nv up ei pl nz na pe nc
cs=001b  ss=0023  ds=0023  es=0023  fs=003b  gs=0000             efl=00000206
kernel32!BasepFillUEFInfo+0x5c:
77733e2e 6a00            push    0
0:000> 
eax=01000000 ebx=00000000 ecx=00006000 edx=77b570b4 esi=0030fad0 edi=77b56258
eip=77733e30 esp=0030fa80 ebp=0030fab8 iopl=0         nv up ei pl nz na pe nc
cs=001b  ss=0023  ds=0023  es=0023  fs=003b  gs=0000             efl=00000206
kernel32!BasepFillUEFInfo+0x5e:
77733e30 6812020000      push    212h
0:000> 
eax=01000000 ebx=00000000 ecx=00006000 edx=77b570b4 esi=0030fad0 edi=77b56258
eip=77733e35 esp=0030fa7c ebp=0030fab8 iopl=0         nv up ei pl nz na pe nc
cs=001b  ss=0023  ds=0023  es=0023  fs=003b  gs=0000             efl=00000206
kernel32!BasepFillUEFInfo+0x63:
77733e35 83c60c          add     esi,0Ch
0:000> 
eax=01000000 ebx=00000000 ecx=00006000 edx=77b570b4 esi=0030fadc edi=77b56258
eip=77733e38 esp=0030fa7c ebp=0030fab8 iopl=0         nv up ei pl nz na po nc
cs=001b  ss=0023  ds=0023  es=0023  fs=003b  gs=0000             efl=00000202
kernel32!BasepFillUEFInfo+0x66:
77733e38 56              push    esi
0:000> 
eax=01000000 ebx=00000000 ecx=00006000 edx=77b570b4 esi=0030fadc edi=77b56258
eip=77733e39 esp=0030fa78 ebp=0030fab8 iopl=0         nv up ei pl nz na po nc
cs=001b  ss=0023  ds=0023  es=0023  fs=003b  gs=0000             efl=00000202
kernel32!BasepFillUEFInfo+0x67:
77733e39 6a02            push    2
0:000> 
eax=01000000 ebx=00000000 ecx=00006000 edx=77b570b4 esi=0030fadc edi=77b56258
eip=77733e3b esp=0030fa74 ebp=0030fab8 iopl=0         nv up ei pl nz na po nc
cs=001b  ss=0023  ds=0023  es=0023  fs=003b  gs=0000             efl=00000202
kernel32!BasepFillUEFInfo+0x69:
77733e3b ff7508          push    dword ptr [ebp+8]    ss:0023:0030fac0={emet2!__CxxUnhandledExceptionFilter (00131324)}
0:000> 
eax=01000000 ebx=00000000 ecx=00006000 edx=77b570b4 esi=0030fadc edi=77b56258
eip=77733e3e esp=0030fa70 ebp=0030fab8 iopl=0         nv up ei pl nz na po nc
cs=001b  ss=0023  ds=0023  es=0023  fs=003b  gs=0000             efl=00000202
kernel32!BasepFillUEFInfo+0x6c:
77733e3e 6aff            push    0FFFFFFFFh
0:000> 
eax=01000000 ebx=00000000 ecx=00006000 edx=77b570b4 esi=0030fadc edi=77b56258
eip=77733e40 esp=0030fa6c ebp=0030fab8 iopl=0         nv up ei pl nz na po nc
cs=001b  ss=0023  ds=0023  es=0023  fs=003b  gs=0000             efl=00000202
kernel32!BasepFillUEFInfo+0x6e:
77733e40 ffd7            call    edi {ntdll!NtQueryVirtualMemory (77b56258)}
0:000> 
eax=00000000 ebx=00000000 ecx=0030fa64 edx=77b570b4 esi=0030fadc edi=77b56258
eip=77733e42 esp=0030fa84 ebp=0030fab8 iopl=0         nv up ei pl nz na po nc
cs=001b  ss=0023  ds=0023  es=0023  fs=003b  gs=0000             efl=00000202
kernel32!BasepFillUEFInfo+0x70:
77733e42 85c0            test    eax,eax
0:000> 
eax=00000000 ebx=00000000 ecx=0030fa64 edx=77b570b4 esi=0030fadc edi=77b56258
eip=77733e44 esp=0030fa84 ebp=0030fab8 iopl=0         nv up ei pl zr na pe nc
cs=001b  ss=0023  ds=0023  es=0023  fs=003b  gs=0000             efl=00000246
kernel32!BasepFillUEFInfo+0x72:
77733e44 0f8c15840200    jl      kernel32!BasepFillUEFInfo+0x74 (7775c25f) [br=0]
0:000> 
eax=00000000 ebx=00000000 ecx=0030fa64 edx=77b570b4 esi=0030fadc edi=77b56258
eip=77733e4a esp=0030fa84 ebp=0030fab8 iopl=0         nv up ei pl zr na pe nc
cs=001b  ss=0023  ds=0023  es=0023  fs=003b  gs=0000             efl=00000246
kernel32!BasepFillUEFInfo+0x80:
77733e4a 33c0            xor     eax,eax
0:000> 
eax=00000000 ebx=00000000 ecx=0030fa64 edx=77b570b4 esi=0030fadc edi=77b56258
eip=77733e4c esp=0030fa84 ebp=0030fab8 iopl=0         nv up ei pl zr na pe nc
cs=001b  ss=0023  ds=0023  es=0023  fs=003b  gs=0000             efl=00000246
kernel32!BasepFillUEFInfo+0x82:
77733e4c 40              inc     eax
0:000> 
eax=00000001 ebx=00000000 ecx=0030fa64 edx=77b570b4 esi=0030fadc edi=77b56258
eip=77733e4d esp=0030fa84 ebp=0030fab8 iopl=0         nv up ei pl nz na po nc
cs=001b  ss=0023  ds=0023  es=0023  fs=003b  gs=0000             efl=00000202
kernel32!BasepFillUEFInfo+0x87:
77733e4d 5f              pop     edi
0:000> 
eax=00000001 ebx=00000000 ecx=0030fa64 edx=77b570b4 esi=0030fadc edi=00000000
eip=77733e4e esp=0030fa88 ebp=0030fab8 iopl=0         nv up ei pl nz na po nc
cs=001b  ss=0023  ds=0023  es=0023  fs=003b  gs=0000             efl=00000202
kernel32!BasepFillUEFInfo+0x88:
77733e4e 5e              pop     esi
0:000> 
eax=00000001 ebx=00000000 ecx=0030fa64 edx=77b570b4 esi=00131324 edi=00000000
eip=77733e4f esp=0030fa8c ebp=0030fab8 iopl=0         nv up ei pl nz na po nc
cs=001b  ss=0023  ds=0023  es=0023  fs=003b  gs=0000             efl=00000202
kernel32!BasepFillUEFInfo+0x89:
77733e4f c9              leave
0:000> 
*** ERROR: Symbol file could not be found.  Defaulted to export symbols for C:\Windows\system32\MSVCR120.dll - 
eax=00000001 ebx=00000000 ecx=0030fa64 edx=77b570b4 esi=00131324 edi=00000000
eip=77733e50 esp=0030fabc ebp=0030fcf0 iopl=0         nv up ei pl nz na po nc
cs=001b  ss=0023  ds=0023  es=0023  fs=003b  gs=0000             efl=00000202
kernel32!BasepFillUEFInfo+0x8a:
77733e50 c20800          ret     8
0:000> 
eax=00000001 ebx=00000000 ecx=0030fa64 edx=77b570b4 esi=00131324 edi=00000000
eip=77733d26 esp=0030fac8 ebp=0030fcf0 iopl=0         nv up ei pl nz na po nc
cs=001b  ss=0023  ds=0023  es=0023  fs=003b  gs=0000             efl=00000202
kernel32!SetUnhandledExceptionFilter+0x21:
77733d26 85c0            test    eax,eax
0:000> p
eax=00000001 ebx=00000000 ecx=0030fa64 edx=77b570b4 esi=00131324 edi=00000000
eip=77733d28 esp=0030fac8 ebp=0030fcf0 iopl=0         nv up ei pl nz na po nc
cs=001b  ss=0023  ds=0023  es=0023  fs=003b  gs=0000             efl=00000202
kernel32!SetUnhandledExceptionFilter+0x23:
77733d28 0f84272f0100    je      kernel32!SetUnhandledExceptionFilter+0x25 (77746c55) [br=0]
0:000> 
eax=00000001 ebx=00000000 ecx=0030fa64 edx=77b570b4 esi=00131324 edi=00000000
eip=77733d2e esp=0030fac8 ebp=0030fcf0 iopl=0         nv up ei pl nz na po nc
cs=001b  ss=0023  ds=0023  es=0023  fs=003b  gs=0000             efl=00000202
kernel32!SetUnhandledExceptionFilter+0x27:
77733d2e 85f6            test    esi,esi
0:000> 
eax=00000001 ebx=00000000 ecx=0030fa64 edx=77b570b4 esi=00131324 edi=00000000
eip=77733d30 esp=0030fac8 ebp=0030fcf0 iopl=0         nv up ei pl nz na pe nc
cs=001b  ss=0023  ds=0023  es=0023  fs=003b  gs=0000             efl=00000206
kernel32!SetUnhandledExceptionFilter+0x29:
77733d30 0f84c34b0100    je      kernel32!SetUnhandledExceptionFilter+0x93 (777488f9) [br=0]
0:000> 
eax=00000001 ebx=00000000 ecx=0030fa64 edx=77b570b4 esi=00131324 edi=00000000
eip=77733d36 esp=0030fac8 ebp=0030fcf0 iopl=0         nv up ei pl nz na pe nc
cs=001b  ss=0023  ds=0023  es=0023  fs=003b  gs=0000             efl=00000206
kernel32!SetUnhandledExceptionFilter+0x2b:
77733d36 8b1d9c677a77    mov     ebx,dword ptr [kernel32!BasepFilterInfo (777a679c)] ds:0023:777a679c=00000000
0:000> 
eax=00000001 ebx=00000000 ecx=0030fa64 edx=77b570b4 esi=00131324 edi=00000000
eip=77733d3c esp=0030fac8 ebp=0030fcf0 iopl=0         nv up ei pl nz na pe nc
cs=001b  ss=0023  ds=0023  es=0023  fs=003b  gs=0000             efl=00000206
kernel32!SetUnhandledExceptionFilter+0x31:
77733d3c 85db            test    ebx,ebx
0:000> 
eax=00000001 ebx=00000000 ecx=0030fa64 edx=77b570b4 esi=00131324 edi=00000000
eip=77733d3e esp=0030fac8 ebp=0030fcf0 iopl=0         nv up ei pl zr na pe nc
cs=001b  ss=0023  ds=0023  es=0023  fs=003b  gs=0000             efl=00000246
kernel32!SetUnhandledExceptionFilter+0x33:
77733d3e 0f840f010000    je      kernel32!SetUnhandledExceptionFilter+0x35 (77733e53) [br=1]
0:000> 
eax=00000001 ebx=00000000 ecx=0030fa64 edx=77b570b4 esi=00131324 edi=00000000
eip=77733e53 esp=0030fac8 ebp=0030fcf0 iopl=0         nv up ei pl zr na pe nc
cs=001b  ss=0023  ds=0023  es=0023  fs=003b  gs=0000             efl=00000246
kernel32!SetUnhandledExceptionFilter+0x35:
77733e53 e8b87effff      call    kernel32!KernelBaseGetGlobalData (7772bd10)
0:000> 
eax=75db40f0 ebx=00000000 ecx=0030fa64 edx=77b570b4 esi=00131324 edi=00000000
eip=77733e58 esp=0030fac8 ebp=0030fcf0 iopl=0         nv up ei pl zr na pe nc
cs=001b  ss=0023  ds=0023  es=0023  fs=003b  gs=0000             efl=00000246
kernel32!SetUnhandledExceptionFilter+0x3a:
77733e58 8b402c          mov     eax,dword ptr [eax+2Ch] ds:0023:75db411c=00000000
0:000> 
eax=00000000 ebx=00000000 ecx=0030fa64 edx=77b570b4 esi=00131324 edi=00000000
eip=77733e5b esp=0030fac8 ebp=0030fcf0 iopl=0         nv up ei pl zr na pe nc
cs=001b  ss=0023  ds=0023  es=0023  fs=003b  gs=0000             efl=00000246
kernel32!SetUnhandledExceptionFilter+0x3d:
77733e5b 648b0d18000000  mov     ecx,dword ptr fs:[18h] fs:003b:00000018=7ffdf000
0:000> 
eax=00000000 ebx=00000000 ecx=7ffdf000 edx=77b570b4 esi=00131324 edi=00000000
eip=77733e62 esp=0030fac8 ebp=0030fcf0 iopl=0         nv up ei pl zr na pe nc
cs=001b  ss=0023  ds=0023  es=0023  fs=003b  gs=0000             efl=00000246
kernel32!SetUnhandledExceptionFilter+0x44:
77733e62 6840040000      push    440h
0:000> 
eax=00000000 ebx=00000000 ecx=7ffdf000 edx=77b570b4 esi=00131324 edi=00000000
eip=77733e67 esp=0030fac4 ebp=0030fcf0 iopl=0         nv up ei pl zr na pe nc
cs=001b  ss=0023  ds=0023  es=0023  fs=003b  gs=0000             efl=00000246
kernel32!SetUnhandledExceptionFilter+0x49:
77733e67 0500002c00      add     eax,2C0000h
0:000> 
eax=002c0000 ebx=00000000 ecx=7ffdf000 edx=77b570b4 esi=00131324 edi=00000000
eip=77733e6c esp=0030fac4 ebp=0030fcf0 iopl=0         nv up ei pl nz na pe nc
cs=001b  ss=0023  ds=0023  es=0023  fs=003b  gs=0000             efl=00000206
kernel32!SetUnhandledExceptionFilter+0x4e:
77733e6c 50              push    eax
0:000> 
eax=002c0000 ebx=00000000 ecx=7ffdf000 edx=77b570b4 esi=00131324 edi=00000000
eip=77733e6d esp=0030fac0 ebp=0030fcf0 iopl=0         nv up ei pl nz na pe nc
cs=001b  ss=0023  ds=0023  es=0023  fs=003b  gs=0000             efl=00000206
kernel32!SetUnhandledExceptionFilter+0x4f:
77733e6d 8b4130          mov     eax,dword ptr [ecx+30h] ds:0023:7ffdf030=7ffd9000
0:000> 
eax=7ffd9000 ebx=00000000 ecx=7ffdf000 edx=77b570b4 esi=00131324 edi=00000000
eip=77733e70 esp=0030fac0 ebp=0030fcf0 iopl=0         nv up ei pl nz na pe nc
cs=001b  ss=0023  ds=0023  es=0023  fs=003b  gs=0000             efl=00000206
kernel32!SetUnhandledExceptionFilter+0x52:
77733e70 ff7018          push    dword ptr [eax+18h]  ds:0023:7ffd9018=003f0000
0:000> 
eax=7ffd9000 ebx=00000000 ecx=7ffdf000 edx=77b570b4 esi=00131324 edi=00000000
eip=77733e73 esp=0030fabc ebp=0030fcf0 iopl=0         nv up ei pl nz na pe nc
cs=001b  ss=0023  ds=0023  es=0023  fs=003b  gs=0000             efl=00000206
kernel32!SetUnhandledExceptionFilter+0x55:
77733e73 ff1514166e77    call    dword ptr [kernel32!_imp__RtlAllocateHeap (776e1614)] ds:0023:776e1614={ntdll!RtlAllocateHeap (77b62dd6)}
0:000> 
eax=00420050 ebx=00000000 ecx=77b65dd3 edx=003f0174 esi=00131324 edi=00000000
eip=77733e79 esp=0030fac8 ebp=0030fcf0 iopl=0         nv up ei pl zr na pe nc
cs=001b  ss=0023  ds=0023  es=0023  fs=003b  gs=0000             efl=00000246
kernel32!SetUnhandledExceptionFilter+0x5b:
77733e79 8bd8            mov     ebx,eax
0:000> 
eax=00420050 ebx=00420050 ecx=77b65dd3 edx=003f0174 esi=00131324 edi=00000000
eip=77733e7b esp=0030fac8 ebp=0030fcf0 iopl=0         nv up ei pl zr na pe nc
cs=001b  ss=0023  ds=0023  es=0023  fs=003b  gs=0000             efl=00000246
kernel32!SetUnhandledExceptionFilter+0x5d:
77733e7b 85db            test    ebx,ebx
0:000> 
eax=00420050 ebx=00420050 ecx=77b65dd3 edx=003f0174 esi=00131324 edi=00000000
eip=77733e7d esp=0030fac8 ebp=0030fcf0 iopl=0         nv up ei pl nz na pe nc
cs=001b  ss=0023  ds=0023  es=0023  fs=003b  gs=0000             efl=00000206
kernel32!SetUnhandledExceptionFilter+0x5f:
77733e7d 0f84d92d0100    je      kernel32!SetUnhandledExceptionFilter+0x8f (77746c5c) [br=0]
0:000> 
eax=00420050 ebx=00420050 ecx=77b65dd3 edx=003f0174 esi=00131324 edi=00000000
eip=77733e83 esp=0030fac8 ebp=0030fcf0 iopl=0         nv up ei pl nz na pe nc
cs=001b  ss=0023  ds=0023  es=0023  fs=003b  gs=0000             efl=00000206
kernel32!SetUnhandledExceptionFilter+0x61:
77733e83 6a00            push    0
0:000> 
eax=00420050 ebx=00420050 ecx=77b65dd3 edx=003f0174 esi=00131324 edi=00000000
eip=77733e85 esp=0030fac4 ebp=0030fcf0 iopl=0         nv up ei pl nz na pe nc
cs=001b  ss=0023  ds=0023  es=0023  fs=003b  gs=0000             efl=00000206
kernel32!SetUnhandledExceptionFilter+0x63:
77733e85 53              push    ebx
0:000> 
eax=00420050 ebx=00420050 ecx=77b65dd3 edx=003f0174 esi=00131324 edi=00000000
eip=77733e86 esp=0030fac0 ebp=0030fcf0 iopl=0         nv up ei pl nz na pe nc
cs=001b  ss=0023  ds=0023  es=0023  fs=003b  gs=0000             efl=00000206
kernel32!SetUnhandledExceptionFilter+0x64:
77733e86 689c677a77      push    offset kernel32!BasepFilterInfo (777a679c)
0:000> 
eax=00420050 ebx=00420050 ecx=77b65dd3 edx=003f0174 esi=00131324 edi=00000000
eip=77733e8b esp=0030fabc ebp=0030fcf0 iopl=0         nv up ei pl nz na pe nc
cs=001b  ss=0023  ds=0023  es=0023  fs=003b  gs=0000             efl=00000206
kernel32!SetUnhandledExceptionFilter+0x69:
77733e8b e8bc7cffff      call    kernel32!InterlockedCompareExchange (7772bb4c)
0:000> 
eax=00000000 ebx=00420050 ecx=777a679c edx=00420050 esi=00131324 edi=00000000
eip=77733e90 esp=0030fac8 ebp=0030fcf0 iopl=0         nv up ei pl zr na pe nc
cs=001b  ss=0023  ds=0023  es=0023  fs=003b  gs=0000             efl=00000246
kernel32!SetUnhandledExceptionFilter+0x6e:
77733e90 85c0            test    eax,eax
0:000> 
eax=00000000 ebx=00420050 ecx=777a679c edx=00420050 esi=00131324 edi=00000000
eip=77733e92 esp=0030fac8 ebp=0030fcf0 iopl=0         nv up ei pl zr na pe nc
cs=001b  ss=0023  ds=0023  es=0023  fs=003b  gs=0000             efl=00000246
kernel32!SetUnhandledExceptionFilter+0x70:
77733e92 0f84acfeffff    je      kernel32!SetUnhandledExceptionFilter+0x95 (77733d44) [br=1]
0:000> 
eax=00000000 ebx=00420050 ecx=777a679c edx=00420050 esi=00131324 edi=00000000
eip=77733d44 esp=0030fac8 ebp=0030fcf0 iopl=0         nv up ei pl zr na pe nc
cs=001b  ss=0023  ds=0023  es=0023  fs=003b  gs=0000             efl=00000246
kernel32!SetUnhandledExceptionFilter+0x95:
77733d44 56              push    esi
0:000> 
eax=00000000 ebx=00420050 ecx=777a679c edx=00420050 esi=00131324 edi=00000000
eip=77733d45 esp=0030fac4 ebp=0030fcf0 iopl=0         nv up ei pl zr na pe nc
cs=001b  ss=0023  ds=0023  es=0023  fs=003b  gs=0000             efl=00000246
kernel32!SetUnhandledExceptionFilter+0x96:
77733d45 ff1568136e77    call    dword ptr [kernel32!_imp__RtlEncodePointer (776e1368)] ds:0023:776e1368={ntdll!RtlEncodePointer (77b6a295)}
0:000> 
eax=de2a90aa ebx=00420050 ecx=0030fa11 edx=77b570b4 esi=00131324 edi=00000000
eip=77733d4b esp=0030fac8 ebp=0030fcf0 iopl=0         ov up ei pl nz na pe cy
cs=001b  ss=0023  ds=0023  es=0023  fs=003b  gs=0000             efl=00000a07
kernel32!SetUnhandledExceptionFilter+0x9c:
77733d4b 688c677a77      push    offset kernel32!BasepUEFLock (777a678c)
0:000> 
eax=de2a90aa ebx=00420050 ecx=0030fa11 edx=77b570b4 esi=00131324 edi=00000000
eip=77733d50 esp=0030fac4 ebp=0030fcf0 iopl=0         ov up ei pl nz na pe cy
cs=001b  ss=0023  ds=0023  es=0023  fs=003b  gs=0000             efl=00000a07
kernel32!SetUnhandledExceptionFilter+0xa1:
77733d50 894508          mov     dword ptr [ebp+8],eax ss:0023:0030fcf8={emet2!__CxxUnhandledExceptionFilter (00131324)}
0:000> 
eax=de2a90aa ebx=00420050 ecx=0030fa11 edx=77b570b4 esi=00131324 edi=00000000
eip=77733d53 esp=0030fac4 ebp=0030fcf0 iopl=0         ov up ei pl nz na pe cy
cs=001b  ss=0023  ds=0023  es=0023  fs=003b  gs=0000             efl=00000a07
kernel32!SetUnhandledExceptionFilter+0xa4:
77733d53 ff156c136e77    call    dword ptr [kernel32!_imp__RtlAcquireSRWLockExclusive (776e136c)] ds:0023:776e136c={ntdll!RtlAcquireSRWLockExclusive (77b6334e)}
0:000> 
eax=777a678c ebx=00420050 ecx=0030fa11 edx=77b570b4 esi=00131324 edi=00000000
eip=77733d59 esp=0030fac8 ebp=0030fcf0 iopl=0         nv up ei pl zr na pe nc
cs=001b  ss=0023  ds=0023  es=0023  fs=003b  gs=0000             efl=00000246
kernel32!SetUnhandledExceptionFilter+0xaa:
77733d59 85f6            test    esi,esi
0:000> 
eax=777a678c ebx=00420050 ecx=0030fa11 edx=77b570b4 esi=00131324 edi=00000000
eip=77733d5b esp=0030fac8 ebp=0030fcf0 iopl=0         nv up ei pl nz na pe nc
cs=001b  ss=0023  ds=0023  es=0023  fs=003b  gs=0000             efl=00000206
kernel32!SetUnhandledExceptionFilter+0xac:
77733d5b 7426            je      kernel32!SetUnhandledExceptionFilter+0xd4 (77733d83) [br=0]
0:000> 
eax=777a678c ebx=00420050 ecx=0030fa11 edx=77b570b4 esi=00131324 edi=00000000
eip=77733d5d esp=0030fac8 ebp=0030fcf0 iopl=0         nv up ei pl nz na pe nc
cs=001b  ss=0023  ds=0023  es=0023  fs=003b  gs=0000             efl=00000206
kernel32!SetUnhandledExceptionFilter+0xae:
77733d5d 57              push    edi
0:000> 
eax=777a678c ebx=00420050 ecx=0030fa11 edx=77b570b4 esi=00131324 edi=00000000
eip=77733d5e esp=0030fac4 ebp=0030fcf0 iopl=0         nv up ei pl nz na pe nc
cs=001b  ss=0023  ds=0023  es=0023  fs=003b  gs=0000             efl=00000206
kernel32!SetUnhandledExceptionFilter+0xaf:
77733d5e b988000000      mov     ecx,88h
0:000> 
eax=777a678c ebx=00420050 ecx=00000088 edx=77b570b4 esi=00131324 edi=00000000
eip=77733d63 esp=0030fac4 ebp=0030fcf0 iopl=0         nv up ei pl nz na pe nc
cs=001b  ss=0023  ds=0023  es=0023  fs=003b  gs=0000             efl=00000206
kernel32!SetUnhandledExceptionFilter+0xb4:
77733d63 8db5e0fdffff    lea     esi,[ebp-220h]
0:000> 
eax=777a678c ebx=00420050 ecx=00000088 edx=77b570b4 esi=0030fad0 edi=00000000
eip=77733d69 esp=0030fac4 ebp=0030fcf0 iopl=0         nv up ei pl nz na pe nc
cs=001b  ss=0023  ds=0023  es=0023  fs=003b  gs=0000             efl=00000206
kernel32!SetUnhandledExceptionFilter+0xba:
77733d69 8bfb            mov     edi,ebx
0:000> 
eax=777a678c ebx=00420050 ecx=00000088 edx=77b570b4 esi=0030fad0 edi=00420050
eip=77733d6b esp=0030fac4 ebp=0030fcf0 iopl=0         nv up ei pl nz na pe nc
cs=001b  ss=0023  ds=0023  es=0023  fs=003b  gs=0000             efl=00000206
kernel32!SetUnhandledExceptionFilter+0xbc:
77733d6b f3a5            rep movs dword ptr es:[edi],dword ptr [esi]
0:000> 
eax=777a678c ebx=00420050 ecx=00000000 edx=77b570b4 esi=0030fcf0 edi=00420270
eip=77733d6d esp=0030fac4 ebp=0030fcf0 iopl=0         nv up ei pl nz na pe nc
cs=001b  ss=0023  ds=0023  es=0023  fs=003b  gs=0000             efl=00000206
kernel32!SetUnhandledExceptionFilter+0xbe:
77733d6d f7430800000401  test    dword ptr [ebx+8],1040000h ds:0023:00420058=01000000
0:000> 
eax=777a678c ebx=00420050 ecx=00000000 edx=77b570b4 esi=0030fcf0 edi=00420270
eip=77733d74 esp=0030fac4 ebp=0030fcf0 iopl=0         nv up ei pl nz na pe nc
cs=001b  ss=0023  ds=0023  es=0023  fs=003b  gs=0000             efl=00000206
kernel32!SetUnhandledExceptionFilter+0xc5:
77733d74 5f              pop     edi
0:000> 
eax=777a678c ebx=00420050 ecx=00000000 edx=77b570b4 esi=0030fcf0 edi=00000000
eip=77733d75 esp=0030fac8 ebp=0030fcf0 iopl=0         nv up ei pl nz na pe nc
cs=001b  ss=0023  ds=0023  es=0023  fs=003b  gs=0000             efl=00000206
kernel32!SetUnhandledExceptionFilter+0xc6:
77733d75 740c            je      kernel32!SetUnhandledExceptionFilter+0xd4 (77733d83) [br=0]
0:000> 
eax=777a678c ebx=00420050 ecx=00000000 edx=77b570b4 esi=0030fcf0 edi=00000000
eip=77733d77 esp=0030fac8 ebp=0030fcf0 iopl=0         nv up ei pl nz na pe nc
cs=001b  ss=0023  ds=0023  es=0023  fs=003b  gs=0000             efl=00000206
kernel32!SetUnhandledExceptionFilter+0xc8:
77733d77 837b1000        cmp     dword ptr [ebx+10h],0 ds:0023:00420060=0030fae4
0:000> 
eax=777a678c ebx=00420050 ecx=00000000 edx=77b570b4 esi=0030fcf0 edi=00000000
eip=77733d7b esp=0030fac8 ebp=0030fcf0 iopl=0         nv up ei pl nz na pe nc
cs=001b  ss=0023  ds=0023  es=0023  fs=003b  gs=0000             efl=00000206
kernel32!SetUnhandledExceptionFilter+0xcc:
77733d7b 7406            je      kernel32!SetUnhandledExceptionFilter+0xd4 (77733d83) [br=0]
0:000> 
eax=777a678c ebx=00420050 ecx=00000000 edx=77b570b4 esi=0030fcf0 edi=00000000
eip=77733d7d esp=0030fac8 ebp=0030fcf0 iopl=0         nv up ei pl nz na pe nc
cs=001b  ss=0023  ds=0023  es=0023  fs=003b  gs=0000             efl=00000206
kernel32!SetUnhandledExceptionFilter+0xce:
77733d7d 8d4314          lea     eax,[ebx+14h]
0:000> 
eax=00420064 ebx=00420050 ecx=00000000 edx=77b570b4 esi=0030fcf0 edi=00000000
eip=77733d80 esp=0030fac8 ebp=0030fcf0 iopl=0         nv up ei pl nz na pe nc
cs=001b  ss=0023  ds=0023  es=0023  fs=003b  gs=0000             efl=00000206
kernel32!SetUnhandledExceptionFilter+0xd1:
77733d80 894310          mov     dword ptr [ebx+10h],eax ds:0023:00420060=0030fae4
0:000> 
eax=00420064 ebx=00420050 ecx=00000000 edx=77b570b4 esi=0030fcf0 edi=00000000
eip=77733d83 esp=0030fac8 ebp=0030fcf0 iopl=0         nv up ei pl nz na pe nc
cs=001b  ss=0023  ds=0023  es=0023  fs=003b  gs=0000             efl=00000206
kernel32!SetUnhandledExceptionFilter+0xd4:
77733d83 8b4508          mov     eax,dword ptr [ebp+8] ss:0023:0030fcf8=de2a90aa
0:000> 
eax=de2a90aa ebx=00420050 ecx=00000000 edx=77b570b4 esi=0030fcf0 edi=00000000
eip=77733d86 esp=0030fac8 ebp=0030fcf0 iopl=0         nv up ei pl nz na pe nc
cs=001b  ss=0023  ds=0023  es=0023  fs=003b  gs=0000             efl=00000206
kernel32!SetUnhandledExceptionFilter+0xd7:
77733d86 8b357c657a77    mov     esi,dword ptr [kernel32!BasepCurrentTopLevelFilter (777a657c)] ds:0023:777a657c=57b890a3
0:000> 
eax=de2a90aa ebx=00420050 ecx=00000000 edx=77b570b4 esi=57b890a3 edi=00000000
eip=77733d8c esp=0030fac8 ebp=0030fcf0 iopl=0         nv up ei pl nz na pe nc
cs=001b  ss=0023  ds=0023  es=0023  fs=003b  gs=0000             efl=00000206
kernel32!SetUnhandledExceptionFilter+0xdd:
77733d8c 688c677a77      push    offset kernel32!BasepUEFLock (777a678c)
0:000> 
eax=de2a90aa ebx=00420050 ecx=00000000 edx=77b570b4 esi=57b890a3 edi=00000000
eip=77733d91 esp=0030fac4 ebp=0030fcf0 iopl=0         nv up ei pl nz na pe nc
cs=001b  ss=0023  ds=0023  es=0023  fs=003b  gs=0000             efl=00000206
kernel32!SetUnhandledExceptionFilter+0xe2:
77733d91 a37c657a77      mov     dword ptr [kernel32!BasepCurrentTopLevelFilter (777a657c)],eax ds:0023:777a657c=57b890a3
0:000> 
eax=de2a90aa ebx=00420050 ecx=00000000 edx=77b570b4 esi=57b890a3 edi=00000000
eip=77733d96 esp=0030fac4 ebp=0030fcf0 iopl=0         nv up ei pl nz na pe nc
cs=001b  ss=0023  ds=0023  es=0023  fs=003b  gs=0000             efl=00000206
kernel32!SetUnhandledExceptionFilter+0xe7:
77733d96 ff1570136e77    call    dword ptr [kernel32!_imp__RtlReleaseSRWLockExclusive (776e1370)] ds:0023:776e1370={ntdll!RtlReleaseSRWLockExclusive (77b63324)}
0:000> 
eax=777a678c ebx=00420050 ecx=00000001 edx=77b570b4 esi=57b890a3 edi=00000000
eip=77733d9c esp=0030fac8 ebp=0030fcf0 iopl=0         nv up ei pl zr na pe nc
cs=001b  ss=0023  ds=0023  es=0023  fs=003b  gs=0000             efl=00000246
kernel32!SetUnhandledExceptionFilter+0xed:
77733d9c 56              push    esi
0:000> 
eax=777a678c ebx=00420050 ecx=00000001 edx=77b570b4 esi=57b890a3 edi=00000000
eip=77733d9d esp=0030fac4 ebp=0030fcf0 iopl=0         nv up ei pl zr na pe nc
cs=001b  ss=0023  ds=0023  es=0023  fs=003b  gs=0000             efl=00000246
kernel32!SetUnhandledExceptionFilter+0xee:
77733d9d ff1568166e77    call    dword ptr [kernel32!_imp__RtlDecodePointer (776e1668)] ds:0023:776e1668={ntdll!RtlDecodePointer (77b6cd10)}
0:000> 
eax=00000000 ebx=00420050 ecx=0030fa0f edx=77b570b4 esi=57b890a3 edi=00000000
eip=77733da3 esp=0030fac8 ebp=0030fcf0 iopl=0         nv up ei pl zr na pe nc
cs=001b  ss=0023  ds=0023  es=0023  fs=003b  gs=0000             efl=00000246
kernel32!SetUnhandledExceptionFilter+0xf4:
77733da3 8bf0            mov     esi,eax
0:000> 
eax=00000000 ebx=00420050 ecx=0030fa0f edx=77b570b4 esi=00000000 edi=00000000
eip=77733da5 esp=0030fac8 ebp=0030fcf0 iopl=0         nv up ei pl zr na pe nc
cs=001b  ss=0023  ds=0023  es=0023  fs=003b  gs=0000             efl=00000246
kernel32!SetUnhandledExceptionFilter+0xf6:
77733da5 85f6            test    esi,esi
0:000> 
eax=00000000 ebx=00420050 ecx=0030fa0f edx=77b570b4 esi=00000000 edi=00000000
eip=77733da7 esp=0030fac8 ebp=0030fcf0 iopl=0         nv up ei pl zr na pe nc
cs=001b  ss=0023  ds=0023  es=0023  fs=003b  gs=0000             efl=00000246
kernel32!SetUnhandledExceptionFilter+0xf8:
77733da7 7410            je      kernel32!SetUnhandledExceptionFilter+0x108 (77733db9) [br=1]
0:000> 
eax=00000000 ebx=00420050 ecx=0030fa0f edx=77b570b4 esi=00000000 edi=00000000
eip=77733db9 esp=0030fac8 ebp=0030fcf0 iopl=0         nv up ei pl zr na pe nc
cs=001b  ss=0023  ds=0023  es=0023  fs=003b  gs=0000             efl=00000246
kernel32!SetUnhandledExceptionFilter+0x108:
77733db9 8bc6            mov     eax,esi
0:000> 
eax=00000000 ebx=00420050 ecx=0030fa0f edx=77b570b4 esi=00000000 edi=00000000
eip=77733dbb esp=0030fac8 ebp=0030fcf0 iopl=0         nv up ei pl zr na pe nc
cs=001b  ss=0023  ds=0023  es=0023  fs=003b  gs=0000             efl=00000246
kernel32!SetUnhandledExceptionFilter+0x10a:
77733dbb 5e              pop     esi
0:000> 
eax=00000000 ebx=00420050 ecx=0030fa0f edx=77b570b4 esi=001320c4 edi=00000000
eip=77733dbc esp=0030facc ebp=0030fcf0 iopl=0         nv up ei pl zr na pe nc
cs=001b  ss=0023  ds=0023  es=0023  fs=003b  gs=0000             efl=00000246
kernel32!SetUnhandledExceptionFilter+0x10b:
77733dbc 5b              pop     ebx
0:000> 
eax=00000000 ebx=00000000 ecx=0030fa0f edx=77b570b4 esi=001320c4 edi=00000000
eip=77733dbd esp=0030fad0 ebp=0030fcf0 iopl=0         nv up ei pl zr na pe nc
cs=001b  ss=0023  ds=0023  es=0023  fs=003b  gs=0000             efl=00000246
kernel32!SetUnhandledExceptionFilter+0x10c:
77733dbd c9              leave
0:000> 
eax=00000000 ebx=00000000 ecx=0030fa0f edx=77b570b4 esi=001320c4 edi=00000000
eip=77733dbe esp=0030fcf4 ebp=0030fcfc iopl=0         nv up ei pl zr na pe nc
cs=001b  ss=0023  ds=0023  es=0023  fs=003b  gs=0000             efl=00000246
kernel32!SetUnhandledExceptionFilter+0x10d:
77733dbe c20400          ret     4
0:000> 
eax=00000000 ebx=00000000 ecx=0030fa0f edx=77b570b4 esi=001320c4 edi=00000000
eip=60efddc1 esp=0030fcfc ebp=0030fcfc iopl=0         nv up ei pl zr na pe nc
cs=001b  ss=0023  ds=0023  es=0023  fs=003b  gs=0000             efl=00000246
MSVCR120!_crtSetUnhandledExceptionFilter+0xc:
60efddc1 5d              pop     ebp
0:000> 
eax=00000000 ebx=00000000 ecx=0030fa0f edx=77b570b4 esi=001320c4 edi=00000000
eip=60efddc2 esp=0030fd00 ebp=0030fd10 iopl=0         nv up ei pl zr na pe nc
cs=001b  ss=0023  ds=0023  es=0023  fs=003b  gs=0000             efl=00000246
MSVCR120!_crtSetUnhandledExceptionFilter+0xd:
60efddc2 c3              ret
0:000> 
eax=00000000 ebx=00000000 ecx=0030fa0f edx=77b570b4 esi=001320c4 edi=00000000
eip=0013136f esp=0030fd04 ebp=0030fd10 iopl=0         nv up ei pl zr na pe nc
cs=001b  ss=0023  ds=0023  es=0023  fs=003b  gs=0000             efl=00000246
emet2!__CxxSetUnhandledExceptionFilter+0xa:
0013136f 59              pop     ecx
0:000> 
eax=00000000 ebx=00000000 ecx=00131324 edx=77b570b4 esi=001320c4 edi=00000000
eip=00131370 esp=0030fd08 ebp=0030fd10 iopl=0         nv up ei pl zr na pe nc
cs=001b  ss=0023  ds=0023  es=0023  fs=003b  gs=0000             efl=00000246
emet2!__CxxSetUnhandledExceptionFilter+0xb:
00131370 33c0            xor     eax,eax
0:000> 
eax=00000000 ebx=00000000 ecx=00131324 edx=77b570b4 esi=001320c4 edi=00000000
eip=00131372 esp=0030fd08 ebp=0030fd10 iopl=0         nv up ei pl zr na pe nc
cs=001b  ss=0023  ds=0023  es=0023  fs=003b  gs=0000             efl=00000246
emet2!__CxxSetUnhandledExceptionFilter+0xd:
00131372 c3              ret
0:000> 
eax=00000000 ebx=00000000 ecx=00131324 edx=77b570b4 esi=001320c4 edi=00000000
eip=60eed659 esp=0030fd0c ebp=0030fd10 iopl=0         nv up ei pl zr na pe nc
cs=001b  ss=0023  ds=0023  es=0023  fs=003b  gs=0000             efl=00000246
MSVCR120!initterm_e+0x1a:
60eed659 83c604          add     esi,4
0:000> 
eax=00000000 ebx=00000000 ecx=00131324 edx=77b570b4 esi=001320c8 edi=00000000
eip=60eed65c esp=0030fd0c ebp=0030fd10 iopl=0         nv up ei pl nz na po nc
cs=001b  ss=0023  ds=0023  es=0023  fs=003b  gs=0000             efl=00000202
MSVCR120!initterm_e+0x1d:
60eed65c ebea            jmp     MSVCR120!initterm_e+0x9 (60eed648)
0:000> 
eax=00000000 ebx=00000000 ecx=00131324 edx=77b570b4 esi=001320c8 edi=00000000
eip=60eed648 esp=0030fd0c ebp=0030fd10 iopl=0         nv up ei pl nz na po nc
cs=001b  ss=0023  ds=0023  es=0023  fs=003b  gs=0000             efl=00000202
MSVCR120!initterm_e+0x9:
60eed648 3b750c          cmp     esi,dword ptr [ebp+0Ch] ss:0023:0030fd1c={emet2!__xi_z (001320c8)}
0:000> 
eax=00000000 ebx=00000000 ecx=00131324 edx=77b570b4 esi=001320c8 edi=00000000
eip=60eed64b esp=0030fd0c ebp=0030fd10 iopl=0         nv up ei pl zr na pe nc
cs=001b  ss=0023  ds=0023  es=0023  fs=003b  gs=0000             efl=00000246
MSVCR120!initterm_e+0xc:
60eed64b 7311            jae     MSVCR120!initterm_e+0x1f (60eed65e)     [br=1]
0:000> 
eax=00000000 ebx=00000000 ecx=00131324 edx=77b570b4 esi=001320c8 edi=00000000
eip=60eed65e esp=0030fd0c ebp=0030fd10 iopl=0         nv up ei pl zr na pe nc
cs=001b  ss=0023  ds=0023  es=0023  fs=003b  gs=0000             efl=00000246
MSVCR120!initterm_e+0x1f:
60eed65e 5e              pop     esi
0:000> 
eax=00000000 ebx=00000000 ecx=00131324 edx=77b570b4 esi=00000001 edi=00000000
eip=60eed65f esp=0030fd10 ebp=0030fd10 iopl=0         nv up ei pl zr na pe nc
cs=001b  ss=0023  ds=0023  es=0023  fs=003b  gs=0000             efl=00000246
MSVCR120!initterm_e+0x20:
60eed65f 5d              pop     ebp
0:000> 
eax=00000000 ebx=00000000 ecx=00131324 edx=77b570b4 esi=00000001 edi=00000000
eip=60eed660 esp=0030fd14 ebp=0030fd4c iopl=0         nv up ei pl zr na pe nc
cs=001b  ss=0023  ds=0023  es=0023  fs=003b  gs=0000             efl=00000246
MSVCR120!initterm_e+0x21:
60eed660 c3              ret
0:000> 
eax=00000000 ebx=00000000 ecx=00131324 edx=77b570b4 esi=00000001 edi=00000000
eip=0013121f esp=0030fd18 ebp=0030fd4c iopl=0         nv up ei pl zr na pe nc
cs=001b  ss=0023  ds=0023  es=0023  fs=003b  gs=0000             efl=00000246
emet2!__tmainCRTStartup+0x6a:
0013121f 59              pop     ecx
0:000> 
eax=00000000 ebx=00000000 ecx=001320b8 edx=77b570b4 esi=00000001 edi=00000000
eip=00131220 esp=0030fd1c ebp=0030fd4c iopl=0         nv up ei pl zr na pe nc
cs=001b  ss=0023  ds=0023  es=0023  fs=003b  gs=0000             efl=00000246
emet2!__tmainCRTStartup+0x6b:
00131220 59              pop     ecx
0:000> 
eax=00000000 ebx=00000000 ecx=001320c8 edx=77b570b4 esi=00000001 edi=00000000
eip=00131221 esp=0030fd20 ebp=0030fd4c iopl=0         nv up ei pl zr na pe nc
cs=001b  ss=0023  ds=0023  es=0023  fs=003b  gs=0000             efl=00000246
emet2!__tmainCRTStartup+0x6c:
00131221 85c0            test    eax,eax
0:000> 
eax=00000000 ebx=00000000 ecx=001320c8 edx=77b570b4 esi=00000001 edi=00000000
eip=00131223 esp=0030fd20 ebp=0030fd4c iopl=0         nv up ei pl zr na pe nc
cs=001b  ss=0023  ds=0023  es=0023  fs=003b  gs=0000             efl=00000246
emet2!__tmainCRTStartup+0x6e:
00131223 7417            je      emet2!__tmainCRTStartup+0x87 (0013123c) [br=1]
0:000> 
eax=00000000 ebx=00000000 ecx=001320c8 edx=77b570b4 esi=00000001 edi=00000000
eip=0013123c esp=0030fd20 ebp=0030fd4c iopl=0         nv up ei pl zr na pe nc
cs=001b  ss=0023  ds=0023  es=0023  fs=003b  gs=0000             efl=00000246
emet2!__tmainCRTStartup+0x87:
0013123c 393574331300    cmp     dword ptr [emet2!__native_startup_state (00133374)],esi ds:0023:00133374=00000001
0:000> 
eax=00000000 ebx=00000000 ecx=001320c8 edx=77b570b4 esi=00000001 edi=00000000
eip=00131242 esp=0030fd20 ebp=0030fd4c iopl=0         nv up ei pl zr na pe nc
cs=001b  ss=0023  ds=0023  es=0023  fs=003b  gs=0000             efl=00000246
emet2!__tmainCRTStartup+0x8d:
00131242 751b            jne     emet2!__tmainCRTStartup+0xaa (0013125f) [br=0]
0:000> 
eax=00000000 ebx=00000000 ecx=001320c8 edx=77b570b4 esi=00000001 edi=00000000
eip=00131244 esp=0030fd20 ebp=0030fd4c iopl=0         nv up ei pl zr na pe nc
cs=001b  ss=0023  ds=0023  es=0023  fs=003b  gs=0000             efl=00000246
emet2!__tmainCRTStartup+0x8f:
00131244 68b4201300      push    offset emet2!__xc_z (001320b4)
0:000> 
eax=00000000 ebx=00000000 ecx=001320c8 edx=77b570b4 esi=00000001 edi=00000000
eip=00131249 esp=0030fd1c ebp=0030fd4c iopl=0         nv up ei pl zr na pe nc
cs=001b  ss=0023  ds=0023  es=0023  fs=003b  gs=0000             efl=00000246
emet2!__tmainCRTStartup+0x94:
00131249 68ac201300      push    offset emet2!__xc_a (001320ac)
0:000> 
eax=00000000 ebx=00000000 ecx=001320c8 edx=77b570b4 esi=00000001 edi=00000000
eip=0013124e esp=0030fd18 ebp=0030fd4c iopl=0         nv up ei pl zr na pe nc
cs=001b  ss=0023  ds=0023  es=0023  fs=003b  gs=0000             efl=00000246
emet2!__tmainCRTStartup+0x99:
0013124e e881040000      call    emet2!initterm (001316d4)
0:000> 
eax=00000000 ebx=00000000 ecx=00133034 edx=00000000 esi=00000001 edi=00000000
eip=00131253 esp=0030fd18 ebp=0030fd4c iopl=0         nv up ei pl zr na pe nc
cs=001b  ss=0023  ds=0023  es=0023  fs=003b  gs=0000             efl=00000246
emet2!__tmainCRTStartup+0x9e:
00131253 59              pop     ecx
0:000> 
eax=00000000 ebx=00000000 ecx=001320ac edx=00000000 esi=00000001 edi=00000000
eip=00131254 esp=0030fd1c ebp=0030fd4c iopl=0         nv up ei pl zr na pe nc
cs=001b  ss=0023  ds=0023  es=0023  fs=003b  gs=0000             efl=00000246
emet2!__tmainCRTStartup+0x9f:
00131254 59              pop     ecx
0:000> 
eax=00000000 ebx=00000000 ecx=001320b4 edx=00000000 esi=00000001 edi=00000000
eip=00131255 esp=0030fd20 ebp=0030fd4c iopl=0         nv up ei pl zr na pe nc
cs=001b  ss=0023  ds=0023  es=0023  fs=003b  gs=0000             efl=00000246
emet2!__tmainCRTStartup+0xa0:
00131255 c7057433130002000000 mov dword ptr [emet2!__native_startup_state (00133374)],2 ds:0023:00133374=00000001
0:000> 
eax=00000000 ebx=00000000 ecx=001320b4 edx=00000000 esi=00000001 edi=00000000
eip=0013125f esp=0030fd20 ebp=0030fd4c iopl=0         nv up ei pl zr na pe nc
cs=001b  ss=0023  ds=0023  es=0023  fs=003b  gs=0000             efl=00000246
emet2!__tmainCRTStartup+0xaa:
0013125f 85ff            test    edi,edi
0:000> 
eax=00000000 ebx=00000000 ecx=001320b4 edx=00000000 esi=00000001 edi=00000000
eip=00131261 esp=0030fd20 ebp=0030fd4c iopl=0         nv up ei pl zr na pe nc
cs=001b  ss=0023  ds=0023  es=0023  fs=003b  gs=0000             efl=00000246
emet2!__tmainCRTStartup+0xac:
00131261 7509            jne     emet2!__tmainCRTStartup+0xb7 (0013126c) [br=0]
0:000> 
eax=00000000 ebx=00000000 ecx=001320b4 edx=00000000 esi=00000001 edi=00000000
eip=00131263 esp=0030fd20 ebp=0030fd4c iopl=0         nv up ei pl zr na pe nc
cs=001b  ss=0023  ds=0023  es=0023  fs=003b  gs=0000             efl=00000246
emet2!__tmainCRTStartup+0xae:
00131263 33c0            xor     eax,eax
0:000> 
eax=00000000 ebx=00000000 ecx=001320b4 edx=00000000 esi=00000001 edi=00000000
eip=00131265 esp=0030fd20 ebp=0030fd4c iopl=0         nv up ei pl zr na pe nc
cs=001b  ss=0023  ds=0023  es=0023  fs=003b  gs=0000             efl=00000246
emet2!__tmainCRTStartup+0xb0:
00131265 b970331300      mov     ecx,offset emet2!__native_startup_lock (00133370)
0:000> 
eax=00000000 ebx=00000000 ecx=00133370 edx=00000000 esi=00000001 edi=00000000
eip=0013126a esp=0030fd20 ebp=0030fd4c iopl=0         nv up ei pl zr na pe nc
cs=001b  ss=0023  ds=0023  es=0023  fs=003b  gs=0000             efl=00000246
emet2!__tmainCRTStartup+0xb5:
0013126a 8701            xchg    eax,dword ptr [ecx]  ds:0023:00133370=00310000
0:000> 
eax=00310000 ebx=00000000 ecx=00133370 edx=00000000 esi=00000001 edi=00000000
eip=0013126c esp=0030fd20 ebp=0030fd4c iopl=0         nv up ei pl zr na pe nc
cs=001b  ss=0023  ds=0023  es=0023  fs=003b  gs=0000             efl=00000246
emet2!__tmainCRTStartup+0xb7:
0013126c 833d8033130000  cmp     dword ptr [emet2!__dyn_tls_init_callback (00133380)],0 ds:0023:00133380=00000000
0:000> 
eax=00310000 ebx=00000000 ecx=00133370 edx=00000000 esi=00000001 edi=00000000
eip=00131273 esp=0030fd20 ebp=0030fd4c iopl=0         nv up ei pl zr na pe nc
cs=001b  ss=0023  ds=0023  es=0023  fs=003b  gs=0000             efl=00000246
emet2!__tmainCRTStartup+0xbe:
00131273 7419            je      emet2!__tmainCRTStartup+0xd9 (0013128e) [br=1]
0:000> 
eax=00310000 ebx=00000000 ecx=00133370 edx=00000000 esi=00000001 edi=00000000
eip=0013128e esp=0030fd20 ebp=0030fd4c iopl=0         nv up ei pl zr na pe nc
cs=001b  ss=0023  ds=0023  es=0023  fs=003b  gs=0000             efl=00000246
emet2!__tmainCRTStartup+0xd9:
0013128e 8b0d34301300    mov     ecx,dword ptr [emet2!envp (00133034)] ds:0023:00133034=00421e50
0:000> 
eax=00310000 ebx=00000000 ecx=00421e50 edx=00000000 esi=00000001 edi=00000000
eip=00131294 esp=0030fd20 ebp=0030fd4c iopl=0         nv up ei pl zr na pe nc
cs=001b  ss=0023  ds=0023  es=0023  fs=003b  gs=0000             efl=00000246
emet2!__tmainCRTStartup+0xdf:
00131294 a144201300      mov     eax,dword ptr [emet2!_imp____initenv (00132044)] ds:0023:00132044={MSVCR120!_initenv (60faf62c)}
0:000> 
eax=60faf62c ebx=00000000 ecx=00421e50 edx=00000000 esi=00000001 edi=00000000
eip=00131299 esp=0030fd20 ebp=0030fd4c iopl=0         nv up ei pl zr na pe nc
cs=001b  ss=0023  ds=0023  es=0023  fs=003b  gs=0000             efl=00000246
emet2!__tmainCRTStartup+0xe4:
00131299 8908            mov     dword ptr [eax],ecx  ds:0023:60faf62c=00000000
0:000> 
eax=60faf62c ebx=00000000 ecx=00421e50 edx=00000000 esi=00000001 edi=00000000
eip=0013129b esp=0030fd20 ebp=0030fd4c iopl=0         nv up ei pl zr na pe nc
cs=001b  ss=0023  ds=0023  es=0023  fs=003b  gs=0000             efl=00000246
emet2!__tmainCRTStartup+0xe6:
0013129b ff3534301300    push    dword ptr [emet2!envp (00133034)] ds:0023:00133034=00421e50
0:000> 
eax=60faf62c ebx=00000000 ecx=00421e50 edx=00000000 esi=00000001 edi=00000000
eip=001312a1 esp=0030fd1c ebp=0030fd4c iopl=0         nv up ei pl zr na pe nc
cs=001b  ss=0023  ds=0023  es=0023  fs=003b  gs=0000             efl=00000246
emet2!__tmainCRTStartup+0xec:
001312a1 ff3530301300    push    dword ptr [emet2!argv (00133030)] ds:0023:00133030=00423c10
0:000> 
eax=60faf62c ebx=00000000 ecx=00421e50 edx=00000000 esi=00000001 edi=00000000
eip=001312a7 esp=0030fd18 ebp=0030fd4c iopl=0         nv up ei pl zr na pe nc
cs=001b  ss=0023  ds=0023  es=0023  fs=003b  gs=0000             efl=00000246
emet2!__tmainCRTStartup+0xf2:
001312a7 ff352c301300    push    dword ptr [emet2!argc (0013302c)] ds:0023:0013302c=00000001
0:000> 
eax=60faf62c ebx=00000000 ecx=00421e50 edx=00000000 esi=00000001 edi=00000000
eip=001312ad esp=0030fd14 ebp=0030fd4c iopl=0         nv up ei pl zr na pe nc
cs=001b  ss=0023  ds=0023  es=0023  fs=003b  gs=0000             efl=00000246
emet2!__tmainCRTStartup+0xf8:
001312ad e8defdffff      call    emet2!main (00131090)
0:000> 
Breakpoint 0 hit
eax=60faf62c ebx=00000000 ecx=00421e50 edx=00000000 esi=00000001 edi=00000000
eip=00131090 esp=0030fd10 ebp=0030fd4c iopl=0         nv up ei pl zr na pe nc
cs=001b  ss=0023  ds=0023  es=0023  fs=003b  gs=0000             efl=00000246
emet2!main:
00131090 55              push    ebp
0:000> 
eax=0013109d ebx=00000000 ecx=00421e50 edx=00000000 esi=00000001 edi=00000000
eip=0013109d esp=0030d5fc ebp=0030fd0c iopl=0         nv up ei pl nz na po nc
cs=001b  ss=0023  ds=0023  es=0023  fs=003b  gs=0000             efl=00000202
emet2!main+0xd:
0013109d 33c0            xor     eax,eax
0:000> 
eax=00002710 ebx=00000000 ecx=00421e50 edx=00000000 esi=00000001 edi=00000000
eip=001310a8 esp=0030d5fc ebp=0030fd0c iopl=0         nv up ei pl zr na pe nc
cs=001b  ss=0023  ds=0023  es=0023  fs=003b  gs=0000             efl=00000246
emet2!main+0x18:
001310a8 e853ffffff      call    emet2!f (00131000)
0:000> t
eax=00002710 ebx=00000000 ecx=00421e50 edx=00000000 esi=00000001 edi=00000000
eip=00131000 esp=0030d5f8 ebp=0030fd0c iopl=0         nv up ei pl zr na pe nc
cs=001b  ss=0023  ds=0023  es=0023  fs=003b  gs=0000             efl=00000246
emet2!f:
00131000 55              push    ebp
0:000> p
eax=00002710 ebx=00000000 ecx=00421e50 edx=00000000 esi=00000001 edi=00000000
eip=00131007 esp=0030d5d0 ebp=0030d5f4 iopl=0         nv up ei pl nz na pe nc
cs=001b  ss=0023  ds=0023  es=0023  fs=003b  gs=0000             efl=00000206
emet2!f+0x7:
00131007 6810211300      push    offset emet2!`string' (00132110)
0:000> 
eax=0000001a ebx=00000000 ecx=60f53189 edx=00427022 esi=00000001 edi=00000000
eip=00131012 esp=0030d5cc ebp=0030d5f4 iopl=0         nv up ei pl zr na pe nc
cs=001b  ss=0023  ds=0023  es=0023  fs=003b  gs=0000             efl=00000246
emet2!f+0x12:
00131012 682c211300      push    offset emet2!`string' (0013212c)
0:000> 
eax=60fae060 ebx=60fae060 ecx=60f52006 edx=003f0174 esi=00000001 edi=00000000
eip=00131027 esp=0030d5d0 ebp=0030d5f4 iopl=0         nv up ei pl nz ac po nc
cs=001b  ss=0023  ds=0023  es=0023  fs=003b  gs=0000             efl=00000212
emet2!f+0x27:
00131027 85db            test    ebx,ebx
0:000> 
eax=60fae060 ebx=60fae060 ecx=60f52006 edx=003f0174 esi=00000001 edi=00000000
eip=00131033 esp=0030d5d0 ebp=0030d5f4 iopl=0         nv up ei pl nz na pe nc
cs=001b  ss=0023  ds=0023  es=0023  fs=003b  gs=0000             efl=00000206
emet2!f+0x33:
00131033 57              push    edi
0:000> 
eax=60fae060 ebx=60fae060 ecx=60f52006 edx=003f0174 esi=00000001 edi=00000000
eip=00131034 esp=0030d5cc ebp=0030d5f4 iopl=0         nv up ei pl nz na pe nc
cs=001b  ss=0023  ds=0023  es=0023  fs=003b  gs=0000             efl=00000206
emet2!f+0x34:
00131034 6a02            push    2
0:000> 
eax=00000000 ebx=60fae060 ecx=60f033e6 edx=77b570b4 esi=00000001 edi=00000000
eip=0013103f esp=0030d5c0 ebp=0030d5f4 iopl=0         nv up ei pl zr na pe nc
cs=001b  ss=0023  ds=0023  es=0023  fs=003b  gs=0000             efl=00000246
emet2!f+0x3f:
0013103f 53              push    ebx
0:000> 
eax=000001bd ebx=60fae060 ecx=60effe36 edx=00423e00 esi=00000001 edi=00000000
eip=00131046 esp=0030d5bc ebp=0030d5f4 iopl=0         nv up ei pl zr na pe nc
cs=001b  ss=0023  ds=0023  es=0023  fs=003b  gs=0000             efl=00000246
emet2!f+0x46:
00131046 6a00            push    0
0:000> 
eax=00000000 ebx=60fae060 ecx=60f033e6 edx=77b570b4 esi=00000001 edi=000001bd
eip=00131053 esp=0030d5b0 ebp=0030d5f4 iopl=0         nv up ei pl zr na pe nc
cs=001b  ss=0023  ds=0023  es=0023  fs=003b  gs=0000             efl=00000246
emet2!f+0x53:
00131053 53              push    ebx
0:000> 
eax=000001bd ebx=60fae060 ecx=60ee74a8 edx=000001bc esi=00000001 edi=000001bd
eip=00131061 esp=0030d5a0 ebp=0030d5f4 iopl=0         nv up ei pl nz na po nc
cs=001b  ss=0023  ds=0023  es=0023  fs=003b  gs=0000             efl=00000202
emet2!f+0x61:
00131061 53              push    ebx
0:000> 
eax=00000000 ebx=60fae060 ecx=60ee697e edx=77b570b4 esi=00000001 edi=000001bd
eip=0013106d esp=0030d59c ebp=0030d5f4 iopl=0         nv up ei pl zr na pe nc
cs=001b  ss=0023  ds=0023  es=0023  fs=003b  gs=0000             efl=00000246
emet2!f+0x6d:
0013106d 8d45e0          lea     eax,[ebp-20h]
0:000> 
eax=000001c2 ebx=60fae060 ecx=60f53189 edx=004271ca esi=00000001 edi=000001bd
eip=0013107f esp=0030d5cc ebp=0030d5f4 iopl=0         nv up ei pl nz na pe nc
cs=001b  ss=0023  ds=0023  es=0023  fs=003b  gs=0000             efl=00000206
emet2!f+0x7f:
0013107f 33c0            xor     eax,eax
0:000> u ebp
0030d5f4 61              popad
0030d5f5 61              popad
0030d5f6 61              popad
0030d5f7 61              popad
0030d5f8 8170f8604cb6fa  xor     dword ptr [eax-8],0FAB64C60h
0030d5ff 60              pushad
0030d600 2419            and     al,19h
0030d602 6e              outs    dx,byte ptr [esi]
0:000> dd ebp
0030d5f4  61616161 60f87081 60fab64c 776e1924
0030d604  60f38f5f 77b99d85 60f4d5cb 77bb0ad0
0030d614  77bdb3e5 11110511 60f529d2 eeeefeef
0030d624  60f16628 ffffffff 77b44961 01010141
0030d634  60ef0cdb fefefeff 60f09de1 60f529d2
0030d644  777a666e 60ef0cdb 60f392bd 60f0dd01
0030d654  90909090 777107f0 ffffffe8 b95fc0ff
0030d664  02020311 0202f181 c7830202 fcf6331d
0:000> dd ebp-20
0030d5d4  61616161 61616161 61616161 61616161
0030d5e4  61616161 61616161 61616161 61616161
0030d5f4  61616161 60f87081 60fab64c 776e1924
0030d604  60f38f5f 77b99d85 60f4d5cb 77bb0ad0
0030d614  77bdb3e5 11110511 60f529d2 eeeefeef
0030d624  60f16628 ffffffff 77b44961 01010141
0030d634  60ef0cdb fefefeff 60f09de1 60f529d2
0030d644  777a666e 60ef0cdb 60f392bd 60f0dd01
0:000> bu emet2!f+0x7f
0:000> p
eax=00000000 ebx=00000000 ecx=60f53189 edx=004271ca esi=00000001 edi=00000000
eip=00131083 esp=0030d5d4 ebp=0030d5f4 iopl=0         nv up ei pl zr na pe nc
cs=001b  ss=0023  ds=0023  es=0023  fs=003b  gs=0000             efl=00000246
emet2!f+0x83:
00131083 8be5            mov     esp,ebp
0:000> 
eax=00000000 ebx=00000000 ecx=60f53189 edx=004271ca esi=00000001 edi=00000000
eip=60f87081 esp=0030d5fc ebp=61616161 iopl=0         nv up ei pl zr na pe nc
cs=001b  ss=0023  ds=0023  es=0023  fs=003b  gs=0000             efl=00000246
MSVCR120!_libm_sse2_logf+0x345:
60f87081 c3              ret
0:000> 
eax=00000000 ebx=00000000 ecx=60f53189 edx=004271ca esi=00000001 edi=00000000
eip=60fab64c esp=0030d600 ebp=61616161 iopl=0         nv up ei pl zr na pe nc
cs=001b  ss=0023  ds=0023  es=0023  fs=003b  gs=0000             efl=00000246
MSVCR120!truncl+0x8781:
60fab64c 59              pop     ecx
0:000> 
eax=00000000 ebx=00000000 ecx=776e1924 edx=004271ca esi=00000001 edi=00000000
eip=60fab64d esp=0030d604 ebp=61616161 iopl=0         nv up ei pl zr na pe nc
cs=001b  ss=0023  ds=0023  es=0023  fs=003b  gs=0000             efl=00000246
MSVCR120!truncl+0x8782:
60fab64d c3              ret
0:000> 
eax=00000000 ebx=00000000 ecx=776e1924 edx=004271ca esi=00000001 edi=00000000
eip=60f38f5f esp=0030d608 ebp=61616161 iopl=0         nv up ei pl zr na pe nc
cs=001b  ss=0023  ds=0023  es=0023  fs=003b  gs=0000             efl=00000246
MSVCR120!Concurrency::details::_Scheduler::_GetScheduler:
60f38f5f 8b01            mov     eax,dword ptr [ecx]  ds:0023:776e1924={KERNELBASE!VirtualProtect (75d922bd)}
0:000> 
eax=75d922bd ebx=00000000 ecx=776e1924 edx=004271ca esi=00000001 edi=00000000
eip=60f38f61 esp=0030d608 ebp=61616161 iopl=0         nv up ei pl zr na pe nc
cs=001b  ss=0023  ds=0023  es=0023  fs=003b  gs=0000             efl=00000246
MSVCR120!Concurrency::details::_Scheduler::_GetScheduler+0x2:
60f38f61 c3              ret
0:000> 
eax=75d922bd ebx=00000000 ecx=776e1924 edx=004271ca esi=00000001 edi=00000000
eip=77b99d85 esp=0030d60c ebp=61616161 iopl=0         nv up ei pl zr na pe nc
cs=001b  ss=0023  ds=0023  es=0023  fs=003b  gs=0000             efl=00000246
ntdll!RtlpCoalesceFreeBlocks+0x8fa:
77b99d85 96              xchg    eax,esi
0:000> 
eax=00000001 ebx=00000000 ecx=776e1924 edx=004271ca esi=75d922bd edi=00000000
eip=77b99d86 esp=0030d60c ebp=61616161 iopl=0         nv up ei pl zr na pe nc
cs=001b  ss=0023  ds=0023  es=0023  fs=003b  gs=0000             efl=00000246
ntdll!RtlpCoalesceFreeBlocks+0x8fb:
77b99d86 c3              ret
0:000> 
eax=00000001 ebx=00000000 ecx=776e1924 edx=004271ca esi=75d922bd edi=00000000
eip=60f4d5cb esp=0030d610 ebp=61616161 iopl=0         nv up ei pl zr na pe nc
cs=001b  ss=0023  ds=0023  es=0023  fs=003b  gs=0000             efl=00000246
MSVCR120!findfirst32+0x89:
60f4d5cb 5d              pop     ebp
0:000> 
eax=00000001 ebx=00000000 ecx=776e1924 edx=004271ca esi=75d922bd edi=00000000
eip=60f4d5cc esp=0030d614 ebp=77bb0ad0 iopl=0         nv up ei pl zr na pe nc
cs=001b  ss=0023  ds=0023  es=0023  fs=003b  gs=0000             efl=00000246
MSVCR120!findfirst32+0x8a:
60f4d5cc c3              ret
0:000> 
eax=00000001 ebx=00000000 ecx=776e1924 edx=004271ca esi=75d922bd edi=00000000
eip=77bdb3e5 esp=0030d618 ebp=77bb0ad0 iopl=0         nv up ei pl zr na pe nc
cs=001b  ss=0023  ds=0023  es=0023  fs=003b  gs=0000             efl=00000246
ntdll!_except1+0xc7:
77bdb3e5 5b              pop     ebx
0:000> 
eax=00000001 ebx=11110511 ecx=776e1924 edx=004271ca esi=75d922bd edi=00000000
eip=77bdb3e6 esp=0030d61c ebp=77bb0ad0 iopl=0         nv up ei pl zr na pe nc
cs=001b  ss=0023  ds=0023  es=0023  fs=003b  gs=0000             efl=00000246
ntdll!_except1+0xc8:
77bdb3e6 c3              ret
0:000> 
eax=00000001 ebx=11110511 ecx=776e1924 edx=004271ca esi=75d922bd edi=00000000
eip=60f529d2 esp=0030d620 ebp=77bb0ad0 iopl=0         nv up ei pl zr na pe nc
cs=001b  ss=0023  ds=0023  es=0023  fs=003b  gs=0000             efl=00000246
MSVCR120!fwprintf+0x92:
60f529d2 59              pop     ecx
0:000> 
eax=00000001 ebx=11110511 ecx=eeeefeef edx=004271ca esi=75d922bd edi=00000000
eip=60f529d3 esp=0030d624 ebp=77bb0ad0 iopl=0         nv up ei pl zr na pe nc
cs=001b  ss=0023  ds=0023  es=0023  fs=003b  gs=0000             efl=00000246
MSVCR120!fwprintf+0x93:
60f529d3 c3              ret
0:000> 
eax=00000001 ebx=11110511 ecx=eeeefeef edx=004271ca esi=75d922bd edi=00000000
eip=60f16628 esp=0030d628 ebp=77bb0ad0 iopl=0         nv up ei pl zr na pe nc
cs=001b  ss=0023  ds=0023  es=0023  fs=003b  gs=0000             efl=00000246
MSVCR120!modf+0x2178:
60f16628 03d9            add     ebx,ecx
0:000> 
eax=00000001 ebx=00000400 ecx=eeeefeef edx=004271ca esi=75d922bd edi=00000000
eip=60f1662a esp=0030d628 ebp=77bb0ad0 iopl=0         nv up ei pl nz ac pe cy
cs=001b  ss=0023  ds=0023  es=0023  fs=003b  gs=0000             efl=00000217
MSVCR120!modf+0x217a:
60f1662a 2c24            sub     al,24h
0:000> 
eax=000000dd ebx=00000400 ecx=eeeefeef edx=004271ca esi=75d922bd edi=00000000
eip=60f1662c esp=0030d628 ebp=77bb0ad0 iopl=0         nv up ei ng nz ac pe cy
cs=001b  ss=0023  ds=0023  es=0023  fs=003b  gs=0000             efl=00000297
MSVCR120!modf+0x217c:
60f1662c 5a              pop     edx
0:000> 
eax=000000dd ebx=00000400 ecx=eeeefeef edx=ffffffff esi=75d922bd edi=00000000
eip=60f1662d esp=0030d62c ebp=77bb0ad0 iopl=0         nv up ei ng nz ac pe cy
cs=001b  ss=0023  ds=0023  es=0023  fs=003b  gs=0000             efl=00000297
MSVCR120!modf+0x217d:
60f1662d c3              ret
0:000> 
eax=000000dd ebx=00000400 ecx=eeeefeef edx=ffffffff esi=75d922bd edi=00000000
eip=77b44961 esp=0030d630 ebp=77bb0ad0 iopl=0         nv up ei ng nz ac pe cy
cs=001b  ss=0023  ds=0023  es=0023  fs=003b  gs=0000             efl=00000297
ntdll!_atan_default+0x89:
77b44961 5a              pop     edx
0:000> 
eax=000000dd ebx=00000400 ecx=eeeefeef edx=01010141 esi=75d922bd edi=00000000
eip=77b44962 esp=0030d634 ebp=77bb0ad0 iopl=0         nv up ei ng nz ac pe cy
cs=001b  ss=0023  ds=0023  es=0023  fs=003b  gs=0000             efl=00000297
ntdll!_atan_default+0x8a:
77b44962 c3              ret
0:000> 
eax=000000dd ebx=00000400 ecx=eeeefeef edx=01010141 esi=75d922bd edi=00000000
eip=60ef0cdb esp=0030d638 ebp=77bb0ad0 iopl=0         nv up ei ng nz ac pe cy
cs=001b  ss=0023  ds=0023  es=0023  fs=003b  gs=0000             efl=00000297
MSVCR120!strstr+0xaa:
60ef0cdb 5f              pop     edi
0:000> 
eax=000000dd ebx=00000400 ecx=eeeefeef edx=01010141 esi=75d922bd edi=fefefeff
eip=60ef0cdc esp=0030d63c ebp=77bb0ad0 iopl=0         nv up ei ng nz ac pe cy
cs=001b  ss=0023  ds=0023  es=0023  fs=003b  gs=0000             efl=00000297
MSVCR120!strstr+0xab:
60ef0cdc c3              ret
0:000> 
eax=000000dd ebx=00000400 ecx=eeeefeef edx=01010141 esi=75d922bd edi=fefefeff
eip=60f09de1 esp=0030d640 ebp=77bb0ad0 iopl=0         nv up ei ng nz ac pe cy
cs=001b  ss=0023  ds=0023  es=0023  fs=003b  gs=0000             efl=00000297
MSVCR120!libm_sse2_asin_precise+0xe51:
60f09de1 03d7            add     edx,edi
0:000> 
eax=000000dd ebx=00000400 ecx=eeeefeef edx=00000040 esi=75d922bd edi=fefefeff
eip=60f09de3 esp=0030d640 ebp=77bb0ad0 iopl=0         nv up ei pl nz ac po cy
cs=001b  ss=0023  ds=0023  es=0023  fs=003b  gs=0000             efl=00000213
MSVCR120!libm_sse2_asin_precise+0xe53:
60f09de3 c3              ret
0:000> 
eax=000000dd ebx=00000400 ecx=eeeefeef edx=00000040 esi=75d922bd edi=fefefeff
eip=60f529d2 esp=0030d644 ebp=77bb0ad0 iopl=0         nv up ei pl nz ac po cy
cs=001b  ss=0023  ds=0023  es=0023  fs=003b  gs=0000             efl=00000213
MSVCR120!fwprintf+0x92:
60f529d2 59              pop     ecx
0:000> 
eax=000000dd ebx=00000400 ecx=777a666e edx=00000040 esi=75d922bd edi=fefefeff
eip=60f529d3 esp=0030d648 ebp=77bb0ad0 iopl=0         nv up ei pl nz ac po cy
cs=001b  ss=0023  ds=0023  es=0023  fs=003b  gs=0000             efl=00000213
MSVCR120!fwprintf+0x93:
60f529d3 c3              ret
0:000> 
eax=000000dd ebx=00000400 ecx=777a666e edx=00000040 esi=75d922bd edi=fefefeff
eip=60ef0cdb esp=0030d64c ebp=77bb0ad0 iopl=0         nv up ei pl nz ac po cy
cs=001b  ss=0023  ds=0023  es=0023  fs=003b  gs=0000             efl=00000213
MSVCR120!strstr+0xaa:
60ef0cdb 5f              pop     edi
0:000> 
eax=000000dd ebx=00000400 ecx=777a666e edx=00000040 esi=75d922bd edi=60f392bd
eip=60ef0cdc esp=0030d650 ebp=77bb0ad0 iopl=0         nv up ei pl nz ac po cy
cs=001b  ss=0023  ds=0023  es=0023  fs=003b  gs=0000             efl=00000213
MSVCR120!strstr+0xab:
60ef0cdc c3              ret
0:000> 
eax=000000dd ebx=00000400 ecx=777a666e edx=00000040 esi=75d922bd edi=60f392bd
eip=60f0dd01 esp=0030d654 ebp=77bb0ad0 iopl=0         nv up ei pl nz ac po cy
cs=001b  ss=0023  ds=0023  es=0023  fs=003b  gs=0000             efl=00000213
MSVCR120!libm_sse2_pow_precise+0x371:
60f0dd01 58              pop     eax
0:000> 
eax=90909090 ebx=00000400 ecx=777a666e edx=00000040 esi=75d922bd edi=60f392bd
eip=60f0dd02 esp=0030d658 ebp=77bb0ad0 iopl=0         nv up ei pl nz ac po cy
cs=001b  ss=0023  ds=0023  es=0023  fs=003b  gs=0000             efl=00000213
MSVCR120!libm_sse2_pow_precise+0x372:
60f0dd02 c3              ret
0:000> 
eax=90909090 ebx=00000400 ecx=777a666e edx=00000040 esi=75d922bd edi=60f392bd
eip=777107f0 esp=0030d65c ebp=77bb0ad0 iopl=0         nv up ei pl nz ac po cy
cs=001b  ss=0023  ds=0023  es=0023  fs=003b  gs=0000             efl=00000213
kernel32!`string'+0x258:
777107f0 60              pushad
0:000> 
eax=90909090 ebx=00000400 ecx=777a666e edx=00000040 esi=75d922bd edi=60f392bd
eip=777107f1 esp=0030d63c ebp=77bb0ad0 iopl=0         nv up ei pl nz ac po cy
cs=001b  ss=0023  ds=0023  es=0023  fs=003b  gs=0000             efl=00000213
kernel32!`string'+0x259:
777107f1 c3              ret
0:000> 
eax=90909090 ebx=00000400 ecx=777a666e edx=00000040 esi=75d922bd edi=60f392bd
eip=60f392bd esp=0030d640 ebp=77bb0ad0 iopl=0         nv up ei pl nz ac po cy
cs=001b  ss=0023  ds=0023  es=0023  fs=003b  gs=0000             efl=00000213
MSVCR120!Concurrency::details::_SpinWait<1>::_ShouldSpinAgain+0xa:
60f392bd c3              ret
0:000> 
eax=90909090 ebx=00000400 ecx=777a666e edx=00000040 esi=75d922bd edi=60f392bd
eip=75d922bd esp=0030d644 ebp=77bb0ad0 iopl=0         nv up ei pl nz ac po cy
cs=001b  ss=0023  ds=0023  es=0023  fs=003b  gs=0000             efl=00000213
KERNELBASE!VirtualProtect:
75d922bd e936e598c1      jmp     377207f8
0:000> 
eax=90909090 ebx=00000400 ecx=777a666e edx=00000040 esi=75d922bd edi=60f392bd
eip=377207f8 esp=0030d644 ebp=77bb0ad0 iopl=0         nv up ei pl nz ac po cy
cs=001b  ss=0023  ds=0023  es=0023  fs=003b  gs=0000             efl=00000213
377207f8 83ec24          sub     esp,24h
0:000> 
eax=90909090 ebx=00000400 ecx=777a666e edx=00000040 esi=75d922bd edi=60f392bd
eip=377207fb esp=0030d620 ebp=77bb0ad0 iopl=0         nv up ei pl nz na po nc
cs=001b  ss=0023  ds=0023  es=0023  fs=003b  gs=0000             efl=00000202
377207fb 68a310bf57      push    57BF10A3h
0:000> 
eax=90909090 ebx=00000400 ecx=777a666e edx=00000040 esi=75d922bd edi=60f392bd
eip=37720800 esp=0030d61c ebp=77bb0ad0 iopl=0         nv up ei pl nz na po nc
cs=001b  ss=0023  ds=0023  es=0023  fs=003b  gs=0000             efl=00000202
*** ERROR: Symbol file could not be found.  Defaulted to export symbols for C:\Windows\AppPatch\EMET.DLL - 
37720800 68d00cd465      push    offset EMET!EMETSendCert+0xa80 (65d40cd0)
0:000> 
eax=90909090 ebx=00000400 ecx=777a666e edx=00000040 esi=75d922bd edi=60f392bd
eip=37720805 esp=0030d618 ebp=77bb0ad0 iopl=0         nv up ei pl nz na po nc
cs=001b  ss=0023  ds=0023  es=0023  fs=003b  gs=0000             efl=00000202
37720805 681e087237      push    3772081Eh
0:000> 
eax=90909090 ebx=00000400 ecx=777a666e edx=00000040 esi=75d922bd edi=60f392bd
eip=3772080a esp=0030d614 ebp=77bb0ad0 iopl=0         nv up ei pl nz na po nc
cs=001b  ss=0023  ds=0023  es=0023  fs=003b  gs=0000             efl=00000202
3772080a 6804000000      push    4
0:000> 
eax=90909090 ebx=00000400 ecx=777a666e edx=00000040 esi=75d922bd edi=60f392bd
eip=3772080f esp=0030d610 ebp=77bb0ad0 iopl=0         nv up ei pl nz na po nc
cs=001b  ss=0023  ds=0023  es=0023  fs=003b  gs=0000             efl=00000202
3772080f 53              push    ebx
0:000> 
eax=90909090 ebx=00000400 ecx=777a666e edx=00000040 esi=75d922bd edi=60f392bd
eip=37720810 esp=0030d60c ebp=77bb0ad0 iopl=0         nv up ei pl nz na po nc
cs=001b  ss=0023  ds=0023  es=0023  fs=003b  gs=0000             efl=00000202
37720810 60              pushad
0:000> 
eax=90909090 ebx=00000400 ecx=777a666e edx=00000040 esi=75d922bd edi=60f392bd
eip=37720811 esp=0030d5ec ebp=77bb0ad0 iopl=0         nv up ei pl nz na po nc
cs=001b  ss=0023  ds=0023  es=0023  fs=003b  gs=0000             efl=00000202
37720811 54              push    esp
0:000> 
eax=90909090 ebx=00000400 ecx=777a666e edx=00000040 esi=75d922bd edi=60f392bd
eip=37720812 esp=0030d5e8 ebp=77bb0ad0 iopl=0         nv up ei pl nz na po nc
cs=001b  ss=0023  ds=0023  es=0023  fs=003b  gs=0000             efl=00000202
37720812 e859685e2e      call    EMET+0x27070 (65d07070)
0:000> 
eax=17041981 ebx=00000400 ecx=11420fa3 edx=00000000 esi=75d922bd edi=60f392bd
eip=37720817 esp=0030d5ec ebp=77bb0ad0 iopl=0         nv up ei pl zr na pe nc
cs=001b  ss=0023  ds=0023  es=0023  fs=003b  gs=0000             efl=00000246
37720817 61              popad
0:000> 
eax=00000001 ebx=00000400 ecx=777a666e edx=00000040 esi=75d922bd edi=60f392bd
eip=37720818 esp=0030d60c ebp=77bb0ad0 iopl=0         nv up ei pl zr na pe nc
cs=001b  ss=0023  ds=0023  es=0023  fs=003b  gs=0000             efl=00000246
37720818 83c438          add     esp,38h
0:000> 
eax=00000001 ebx=00000400 ecx=777a666e edx=00000040 esi=75d922bd edi=60f392bd
eip=3772081b esp=0030d644 ebp=77bb0ad0 iopl=0         nv up ei pl nz ac pe nc
cs=001b  ss=0023  ds=0023  es=0023  fs=003b  gs=0000             efl=00000216
3772081b c21000          ret     10h
0:000> 
eax=00000001 ebx=00000400 ecx=777a666e edx=00000040 esi=75d922bd edi=60f392bd
eip=77bb0ad0 esp=0030d658 ebp=77bb0ad0 iopl=0         nv up ei pl nz ac pe nc
cs=001b  ss=0023  ds=0023  es=0023  fs=003b  gs=0000             efl=00000216
ntdll!LdrpUnlockTlsDelayedReclaimTable+0x52:
77bb0ad0 ffe4            jmp     esp {0030d658}
0:000> 
eax=00000001 ebx=00000400 ecx=777a666e edx=00000040 esi=75d922bd edi=60f392bd
eip=0030d658 esp=0030d658 ebp=77bb0ad0 iopl=0         nv up ei pl nz ac pe nc
cs=001b  ss=0023  ds=0023  es=0023  fs=003b  gs=0000             efl=00000216
0030d658 90              nop
0:000> 
eax=00000001 ebx=00000400 ecx=777a666e edx=00000040 esi=75d922bd edi=60f392bd
eip=0030d659 esp=0030d658 ebp=77bb0ad0 iopl=0         nv up ei pl nz ac pe nc
cs=001b  ss=0023  ds=0023  es=0023  fs=003b  gs=0000             efl=00000216
0030d659 90              nop
0:000> 
eax=00000001 ebx=00000400 ecx=777a666e edx=00000040 esi=75d922bd edi=60f392bd
eip=0030d65a esp=0030d658 ebp=77bb0ad0 iopl=0         nv up ei pl nz ac pe nc
cs=001b  ss=0023  ds=0023  es=0023  fs=003b  gs=0000             efl=00000216
0030d65a 90              nop
0:000> 
eax=00000001 ebx=00000400 ecx=777a666e edx=00000040 esi=75d922bd edi=60f392bd
eip=0030d65b esp=0030d658 ebp=77bb0ad0 iopl=0         nv up ei pl nz ac pe nc
cs=001b  ss=0023  ds=0023  es=0023  fs=003b  gs=0000             efl=00000216
0030d65b 90              nop
0:000> 
eax=00000001 ebx=00000400 ecx=777a666e edx=00000040 esi=75d922bd edi=60f392bd
eip=0030d65c esp=0030d658 ebp=77bb0ad0 iopl=0         nv up ei pl nz ac pe nc
cs=001b  ss=0023  ds=0023  es=0023  fs=003b  gs=0000             efl=00000216
0030d65c e8ffffffff      call    0030d660
0:000> 
(1060.1034): Access violation - code c0000005 (first chance)
First chance exceptions are reported before any exception handling.
This exception may be expected and handled.
eax=00000001 ebx=00000400 ecx=00000113 edx=00000040 esi=00000000 edi=30d6611d
eip=0030d674 esp=0030d657 ebp=77bb0ad0 iopl=0         nv up ei pl zr na pe nc
cs=001b  ss=0023  ds=0023  es=0023  fs=003b  gs=0000             efl=00010246
0030d674 8a07            mov     al,byte ptr [edi]          ds:0023:30d6611d=??
0:000> 
eax=00000001 ebx=00000400 ecx=00000113 edx=00000040 esi=00000000 edi=30d6611d
eip=77b57009 esp=0030d1f8 ebp=77bb0ad0 iopl=0         nv up ei pl zr na pe nc
cs=001b  ss=0023  ds=0023  es=0023  fs=003b  gs=0000             efl=00000246
ntdll!KiUserExceptionDispatcher+0x1:
77b57009 8b4c2404        mov     ecx,dword ptr [esp+4] ss:0023:0030d1fc=0030d21c
0:000> p
eax=00000001 ebx=00000400 ecx=0030d21c edx=00000040 esi=00000000 edi=30d6611d
eip=77b5700d esp=0030d1f8 ebp=77bb0ad0 iopl=0         nv up ei pl zr na pe nc
cs=001b  ss=0023  ds=0023  es=0023  fs=003b  gs=0000             efl=00000246
ntdll!KiUserExceptionDispatcher+0x5:
77b5700d 8b1c24          mov     ebx,dword ptr [esp]  ss:0023:0030d1f8=0030d200
0:000> 
eax=00000001 ebx=0030d200 ecx=0030d21c edx=00000040 esi=00000000 edi=30d6611d
eip=77b57010 esp=0030d1f8 ebp=77bb0ad0 iopl=0         nv up ei pl zr na pe nc
cs=001b  ss=0023  ds=0023  es=0023  fs=003b  gs=0000             efl=00000246
ntdll!KiUserExceptionDispatcher+0x8:
77b57010 51              push    ecx
0:000> 
eax=00000001 ebx=0030d200 ecx=0030d21c edx=00000040 esi=00000000 edi=30d6611d
eip=77b57011 esp=0030d1f4 ebp=77bb0ad0 iopl=0         nv up ei pl zr na pe nc
cs=001b  ss=0023  ds=0023  es=0023  fs=003b  gs=0000             efl=00000246
ntdll!KiUserExceptionDispatcher+0x9:
77b57011 53              push    ebx
0:000> 
eax=00000001 ebx=0030d200 ecx=0030d21c edx=00000040 esi=00000000 edi=30d6611d
eip=77b57012 esp=0030d1f0 ebp=77bb0ad0 iopl=0         nv up ei pl zr na pe nc
cs=001b  ss=0023  ds=0023  es=0023  fs=003b  gs=0000             efl=00000246
ntdll!KiUserExceptionDispatcher+0xa:
77b57012 e88588fdff      call    ntdll!RtlDispatchException (77b2f89c)
0:000> 
eax=7ffd9000 ebx=0030d200 ecx=00000003 edx=00000008 esi=00000000 edi=30d6611d
eip=77b57017 esp=0030d1f8 ebp=77bb0ad0 iopl=0         nv up ei pl zr na pe nc
cs=001b  ss=0023  ds=0023  es=0023  fs=003b  gs=0000             efl=00000246
ntdll!KiUserExceptionDispatcher+0xf:
77b57017 0ac0            or      al,al
0:000> 
eax=7ffd9000 ebx=0030d200 ecx=00000003 edx=00000008 esi=00000000 edi=30d6611d
eip=77b57019 esp=0030d1f8 ebp=77bb0ad0 iopl=0         nv up ei pl zr na pe nc
cs=001b  ss=0023  ds=0023  es=0023  fs=003b  gs=0000             efl=00000246
ntdll!KiUserExceptionDispatcher+0x11:
77b57019 740c            je      ntdll!KiUserExceptionDispatcher+0x1f (77b57027) [br=1]
0:000> p
eax=7ffd9000 ebx=0030d200 ecx=00000003 edx=00000008 esi=00000000 edi=30d6611d
eip=77b57027 esp=0030d1f8 ebp=77bb0ad0 iopl=0         nv up ei pl zr na pe nc
cs=001b  ss=0023  ds=0023  es=0023  fs=003b  gs=0000             efl=00000246
ntdll!KiUserExceptionDispatcher+0x1f:
77b57027 5b              pop     ebx
0:000> 
eax=7ffd9000 ebx=0030d200 ecx=00000003 edx=00000008 esi=00000000 edi=30d6611d
eip=77b57028 esp=0030d1fc ebp=77bb0ad0 iopl=0         nv up ei pl zr na pe nc
cs=001b  ss=0023  ds=0023  es=0023  fs=003b  gs=0000             efl=00000246
ntdll!KiUserExceptionDispatcher+0x20:
77b57028 59              pop     ecx
0:000> 
eax=7ffd9000 ebx=0030d200 ecx=0030d21c edx=00000008 esi=00000000 edi=30d6611d
eip=77b57029 esp=0030d200 ebp=77bb0ad0 iopl=0         nv up ei pl zr na pe nc
cs=001b  ss=0023  ds=0023  es=0023  fs=003b  gs=0000             efl=00000246
ntdll!KiUserExceptionDispatcher+0x21:
77b57029 6a00            push    0
0:000> 
eax=7ffd9000 ebx=0030d200 ecx=0030d21c edx=00000008 esi=00000000 edi=30d6611d
eip=77b5702b esp=0030d1fc ebp=77bb0ad0 iopl=0         nv up ei pl zr na pe nc
cs=001b  ss=0023  ds=0023  es=0023  fs=003b  gs=0000             efl=00000246
ntdll!KiUserExceptionDispatcher+0x23:
77b5702b 51              push    ecx
0:000> 
eax=7ffd9000 ebx=0030d200 ecx=0030d21c edx=00000008 esi=00000000 edi=30d6611d
eip=77b5702c esp=0030d1f8 ebp=77bb0ad0 iopl=0         nv up ei pl zr na pe nc
cs=001b  ss=0023  ds=0023  es=0023  fs=003b  gs=0000             efl=00000246
ntdll!KiUserExceptionDispatcher+0x24:
77b5702c 53              push    ebx
0:000> 
eax=7ffd9000 ebx=0030d200 ecx=0030d21c edx=00000008 esi=00000000 edi=30d6611d
eip=77b5702d esp=0030d1f4 ebp=77bb0ad0 iopl=0         nv up ei pl zr na pe nc
cs=001b  ss=0023  ds=0023  es=0023  fs=003b  gs=0000             efl=00000246
ntdll!KiUserExceptionDispatcher+0x25:
77b5702d e866f2ffff      call    ntdll!ZwRaiseException (77b56298)
0:000> 
(1060.1034): Access violation - code c0000005 (!!! second chance !!!)
eax=00000001 ebx=00000400 ecx=00000113 edx=00000040 esi=00000000 edi=30d6611d
eip=0030d674 esp=0030d657 ebp=77bb0ad0 iopl=0         nv up ei pl zr na pe nc
cs=001b  ss=0023  ds=0023  es=0023  fs=003b  gs=0000             efl=00010246
0030d674 8a07            mov     al,byte ptr [edi]          ds:0023:30d6611d=??
0:000> 
(1060.1034): Access violation - code c0000005 (first chance)
First chance exceptions are reported before any exception handling.
This exception may be expected and handled.
eax=00000001 ebx=00000400 ecx=00000113 edx=00000040 esi=00000000 edi=30d6611d
eip=0030d674 esp=0030d657 ebp=77bb0ad0 iopl=0         nv up ei pl zr na pe nc
cs=001b  ss=0023  ds=0023  es=0023  fs=003b  gs=0000             efl=00010246
0030d674 8a07            mov     al,byte ptr [edi]          ds:0023:30d6611d=??
0:000> 
eax=00000001 ebx=00000400 ecx=00000113 edx=00000040 esi=00000000 edi=30d6611d
eip=77b57009 esp=0030d1f8 ebp=77bb0ad0 iopl=0         nv up ei pl zr na pe nc
cs=001b  ss=0023  ds=0023  es=0023  fs=003b  gs=0000             efl=00000246
ntdll!KiUserExceptionDispatcher+0x1:
77b57009 8b4c2404        mov     ecx,dword ptr [esp+4] ss:0023:0030d1fc=0030d21c
0:000> 
eax=00000001 ebx=00000400 ecx=0030d21c edx=00000040 esi=00000000 edi=30d6611d
eip=77b5700d esp=0030d1f8 ebp=77bb0ad0 iopl=0         nv up ei pl zr na pe nc
cs=001b  ss=0023  ds=0023  es=0023  fs=003b  gs=0000             efl=00000246
ntdll!KiUserExceptionDispatcher+0x5:
77b5700d 8b1c24          mov     ebx,dword ptr [esp]  ss:0023:0030d1f8=0030d200
0:000> 
eax=00000001 ebx=0030d200 ecx=0030d21c edx=00000040 esi=00000000 edi=30d6611d
eip=77b57010 esp=0030d1f8 ebp=77bb0ad0 iopl=0         nv up ei pl zr na pe nc
cs=001b  ss=0023  ds=0023  es=0023  fs=003b  gs=0000             efl=00000246
ntdll!KiUserExceptionDispatcher+0x8:
77b57010 51              push    ecx
0:000> 
eax=00000001 ebx=0030d200 ecx=0030d21c edx=00000040 esi=00000000 edi=30d6611d
eip=77b57011 esp=0030d1f4 ebp=77bb0ad0 iopl=0         nv up ei pl zr na pe nc
cs=001b  ss=0023  ds=0023  es=0023  fs=003b  gs=0000             efl=00000246
ntdll!KiUserExceptionDispatcher+0x9:
77b57011 53              push    ebx
0:000> 
eax=00000001 ebx=0030d200 ecx=0030d21c edx=00000040 esi=00000000 edi=30d6611d
eip=77b57012 esp=0030d1f0 ebp=77bb0ad0 iopl=0         nv up ei pl zr na pe nc
cs=001b  ss=0023  ds=0023  es=0023  fs=003b  gs=0000             efl=00000246
ntdll!KiUserExceptionDispatcher+0xa:
77b57012 e88588fdff      call    ntdll!RtlDispatchException (77b2f89c)
0:000> 
eax=7ffd9000 ebx=0030d200 ecx=00000003 edx=00000008 esi=00000000 edi=30d6611d
eip=77b57017 esp=0030d1f8 ebp=77bb0ad0 iopl=0         nv up ei pl zr na pe nc
cs=001b  ss=0023  ds=0023  es=0023  fs=003b  gs=0000             efl=00000246
ntdll!KiUserExceptionDispatcher+0xf:
77b57017 0ac0            or      al,al
0:000> 
eax=7ffd9000 ebx=0030d200 ecx=00000003 edx=00000008 esi=00000000 edi=30d6611d
eip=77b57019 esp=0030d1f8 ebp=77bb0ad0 iopl=0         nv up ei pl zr na pe nc
cs=001b  ss=0023  ds=0023  es=0023  fs=003b  gs=0000             efl=00000246
ntdll!KiUserExceptionDispatcher+0x11:
77b57019 740c            je      ntdll!KiUserExceptionDispatcher+0x1f (77b57027) [br=1]
0:000> 
eax=7ffd9000 ebx=0030d200 ecx=00000003 edx=00000008 esi=00000000 edi=30d6611d
eip=77b57027 esp=0030d1f8 ebp=77bb0ad0 iopl=0         nv up ei pl zr na pe nc
cs=001b  ss=0023  ds=0023  es=0023  fs=003b  gs=0000             efl=00000246
ntdll!KiUserExceptionDispatcher+0x1f:
77b57027 5b              pop     ebx
0:000> 
eax=7ffd9000 ebx=0030d200 ecx=00000003 edx=00000008 esi=00000000 edi=30d6611d
eip=77b57028 esp=0030d1fc ebp=77bb0ad0 iopl=0         nv up ei pl zr na pe nc
cs=001b  ss=0023  ds=0023  es=0023  fs=003b  gs=0000             efl=00000246
ntdll!KiUserExceptionDispatcher+0x20:
77b57028 59              pop     ecx
0:000> 
eax=7ffd9000 ebx=0030d200 ecx=0030d21c edx=00000008 esi=00000000 edi=30d6611d
eip=77b57029 esp=0030d200 ebp=77bb0ad0 iopl=0         nv up ei pl zr na pe nc
cs=001b  ss=0023  ds=0023  es=0023  fs=003b  gs=0000             efl=00000246
ntdll!KiUserExceptionDispatcher+0x21:
77b57029 6a00            push    0
0:000> 
eax=7ffd9000 ebx=0030d200 ecx=0030d21c edx=00000008 esi=00000000 edi=30d6611d
eip=77b5702b esp=0030d1fc ebp=77bb0ad0 iopl=0         nv up ei pl zr na pe nc
cs=001b  ss=0023  ds=0023  es=0023  fs=003b  gs=0000             efl=00000246
ntdll!KiUserExceptionDispatcher+0x23:
77b5702b 51              push    ecx
0:000> 
eax=7ffd9000 ebx=0030d200 ecx=0030d21c edx=00000008 esi=00000000 edi=30d6611d
eip=77b5702c esp=0030d1f8 ebp=77bb0ad0 iopl=0         nv up ei pl zr na pe nc
cs=001b  ss=0023  ds=0023  es=0023  fs=003b  gs=0000             efl=00000246
ntdll!KiUserExceptionDispatcher+0x24:
77b5702c 53              push    ebx
0:000> 
eax=7ffd9000 ebx=0030d200 ecx=0030d21c edx=00000008 esi=00000000 edi=30d6611d
eip=77b5702d esp=0030d1f4 ebp=77bb0ad0 iopl=0         nv up ei pl zr na pe nc
cs=001b  ss=0023  ds=0023  es=0023  fs=003b  gs=0000             efl=00000246
ntdll!KiUserExceptionDispatcher+0x25:
77b5702d e866f2ffff      call    ntdll!ZwRaiseException (77b56298)
0:000> 
(1060.1034): Access violation - code c0000005 (!!! second chance !!!)
eax=00000001 ebx=00000400 ecx=00000113 edx=00000040 esi=00000000 edi=30d6611d
eip=0030d674 esp=0030d657 ebp=77bb0ad0 iopl=0         nv up ei pl zr na pe nc
cs=001b  ss=0023  ds=0023  es=0023  fs=003b  gs=0000             efl=00010246
0030d674 8a07            mov     al,byte ptr [edi]          ds:0023:30d6611d=??
0:000> 
(1060.1034): Access violation - code c0000005 (first chance)
First chance exceptions are reported before any exception handling.
This exception may be expected and handled.
eax=00000001 ebx=00000400 ecx=00000113 edx=00000040 esi=00000000 edi=30d6611d
eip=0030d674 esp=0030d657 ebp=77bb0ad0 iopl=0         nv up ei pl zr na pe nc
cs=001b  ss=0023  ds=0023  es=0023  fs=003b  gs=0000             efl=00010246
0030d674 8a07            mov     al,byte ptr [edi]          ds:0023:30d6611d=??
0:000> 
eax=00000001 ebx=00000400 ecx=00000113 edx=00000040 esi=00000000 edi=30d6611d
eip=77b57009 esp=0030d1f8 ebp=77bb0ad0 iopl=0         nv up ei pl zr na pe nc
cs=001b  ss=0023  ds=0023  es=0023  fs=003b  gs=0000             efl=00000246
ntdll!KiUserExceptionDispatcher+0x1:
77b57009 8b4c2404        mov     ecx,dword ptr [esp+4] ss:0023:0030d1fc=0030d21c
0:000> 
eax=00000001 ebx=00000400 ecx=0030d21c edx=00000040 esi=00000000 edi=30d6611d
eip=77b5700d esp=0030d1f8 ebp=77bb0ad0 iopl=0         nv up ei pl zr na pe nc
cs=001b  ss=0023  ds=0023  es=0023  fs=003b  gs=0000             efl=00000246
ntdll!KiUserExceptionDispatcher+0x5:
77b5700d 8b1c24          mov     ebx,dword ptr [esp]  ss:0023:0030d1f8=0030d200
0:000> 
eax=00000001 ebx=0030d200 ecx=0030d21c edx=00000040 esi=00000000 edi=30d6611d
eip=77b57010 esp=0030d1f8 ebp=77bb0ad0 iopl=0         nv up ei pl zr na pe nc
cs=001b  ss=0023  ds=0023  es=0023  fs=003b  gs=0000             efl=00000246
ntdll!KiUserExceptionDispatcher+0x8:
77b57010 51              push    ecx
0:000> 
eax=00000001 ebx=0030d200 ecx=0030d21c edx=00000040 esi=00000000 edi=30d6611d
eip=77b57011 esp=0030d1f4 ebp=77bb0ad0 iopl=0         nv up ei pl zr na pe nc
cs=001b  ss=0023  ds=0023  es=0023  fs=003b  gs=0000             efl=00000246
ntdll!KiUserExceptionDispatcher+0x9:
77b57011 53              push    ebx
0:000> 
eax=00000001 ebx=0030d200 ecx=0030d21c edx=00000040 esi=00000000 edi=30d6611d
eip=77b57012 esp=0030d1f0 ebp=77bb0ad0 iopl=0         nv up ei pl zr na pe nc
cs=001b  ss=0023  ds=0023  es=0023  fs=003b  gs=0000             efl=00000246
ntdll!KiUserExceptionDispatcher+0xa:
77b57012 e88588fdff      call    ntdll!RtlDispatchException (77b2f89c)
0:000> .restart

************* Symbol Path validation summary **************
Response                         Time (ms)     Location
Deferred                                       SRV*C:\windbgsymbols*http://msdl.microsoft.com/download/symbols
CommandLine: C:\emet2\emet2.exe

************* Symbol Path validation summary **************
Response                         Time (ms)     Location
Deferred                                       SRV*C:\windbgsymbols*http://msdl.microsoft.com/download/symbols
Symbol search path is: SRV*C:\windbgsymbols*http://msdl.microsoft.com/download/symbols
Executable search path is: 
ModLoad: 00e90000 00e96000   emet2.exe
ModLoad: 77b10000 77c4c000   ntdll.dll
ModLoad: 776e0000 777b4000   C:\Windows\system32\kernel32.dll
ModLoad: 75d70000 75dba000   C:\Windows\system32\KERNELBASE.dll
ModLoad: 60ed0000 60fbe000   C:\Windows\system32\MSVCR120.dll
(388.4c0): Break instruction exception - code 80000003 (first chance)
eax=00000000 ebx=00000000 ecx=0026f670 edx=77b570b4 esi=fffffffe edi=00000000
eip=77bb04f6 esp=0026f68c ebp=0026f6b8 iopl=0         nv up ei pl zr na pe nc
cs=001b  ss=0023  ds=0023  es=0023  fs=003b  gs=0000             efl=00000246
ntdll!LdrpDoDebuggerBreak+0x2c:
77bb04f6 cc              int     3
0:000> g
ModLoad: 75b90000 75bdc000   C:\Windows\system32\apphelp.dll
ModLoad: 659e0000 65b80000   C:\Windows\AppPatch\EMET.DLL
ModLoad: 77300000 773ac000   C:\Windows\system32\msvcrt.dll
ModLoad: 77ca0000 77d40000   C:\Windows\system32\ADVAPI32.dll
ModLoad: 76380000 76399000   C:\Windows\SYSTEM32\sechost.dll
ModLoad: 75f60000 76001000   C:\Windows\system32\RPCRT4.dll
(388.4c0): Guard page violation - code 80000001 (first chance)
First chance exceptions are reported before any exception handling.
This exception may be expected and handled.
eax=0026f810 ebx=00000000 ecx=00e91365 edx=00000000 esi=00e91324 edi=00000000
eip=75d78eb5 esp=0026f7e4 ebp=0026f7fc iopl=0         nv up ei pl nz na pe nc
cs=001b  ss=0023  ds=0023  es=0023  fs=003b  gs=0000             efl=00010206
KERNELBASE!VirtualQueryEx+0x17:
75d78eb5 ff15d811d775    call    dword ptr [KERNELBASE!_imp__NtQueryVirtualMemory (75d711d8)] ds:0023:75d711d8={ntdll!NtQueryVirtualMemory (77b56258)}
0:000> g
(388.4c0): Single step exception - code 80000004 (first chance)
First chance exceptions are reported before any exception handling.
This exception may be expected and handled.
eax=0026f810 ebx=00000000 ecx=00e91365 edx=00000000 esi=00e91324 edi=00000000
eip=77b56258 esp=0026f7e0 ebp=0026f7fc iopl=0         nv up ei pl nz na pe nc
cs=001b  ss=0023  ds=0023  es=0023  fs=003b  gs=0000             efl=00000206
ntdll!NtQueryVirtualMemory:
77b56258 b80b010000      mov     eax,10Bh
0:000> u eip
ntdll!NtQueryVirtualMemory:
77b56258 b80b010000      mov     eax,10Bh
77b5625d ba0003fe7f      mov     edx,offset SharedUserData!SystemCallStub (7ffe0300)
77b56262 ff12            call    dword ptr [edx]
77b56264 c21800          ret     18h
77b56267 90              nop
ntdll!NtQueryVolumeInformationFile:
77b56268 b80c010000      mov     eax,10Ch
77b5626d ba0003fe7f      mov     edx,offset SharedUserData!SystemCallStub (7ffe0300)
77b56272 ff12            call    dword ptr [edx]
0:000> p
eax=0000010b ebx=00000000 ecx=00e91365 edx=00000000 esi=00e91324 edi=00000000
eip=77b5625d esp=0026f7e0 ebp=0026f7fc iopl=0         nv up ei pl nz na pe nc
cs=001b  ss=0023  ds=0023  es=0023  fs=003b  gs=0000             efl=00000206
ntdll!NtQueryVirtualMemory+0x5:
77b5625d ba0003fe7f      mov     edx,offset SharedUserData!SystemCallStub (7ffe0300)
0:000> .restart

************* Symbol Path validation summary **************
Response                         Time (ms)     Location
Deferred                                       SRV*C:\windbgsymbols*http://msdl.microsoft.com/download/symbols
CommandLine: C:\emet2\emet2.exe

************* Symbol Path validation summary **************
Response                         Time (ms)     Location
Deferred                                       SRV*C:\windbgsymbols*http://msdl.microsoft.com/download/symbols
Symbol search path is: SRV*C:\windbgsymbols*http://msdl.microsoft.com/download/symbols
Executable search path is: 
ModLoad: 00e90000 00e96000   emet2.exe
ModLoad: 77b10000 77c4c000   ntdll.dll
ModLoad: 776e0000 777b4000   C:\Windows\system32\kernel32.dll
ModLoad: 75d70000 75dba000   C:\Windows\system32\KERNELBASE.dll
ModLoad: 60ed0000 60fbe000   C:\Windows\system32\MSVCR120.dll
(ea8.d34): Break instruction exception - code 80000003 (first chance)
eax=00000000 ebx=00000000 ecx=0014fad8 edx=77b570b4 esi=fffffffe edi=00000000
eip=77bb04f6 esp=0014faf4 ebp=0014fb20 iopl=0         nv up ei pl zr na pe nc
cs=001b  ss=0023  ds=0023  es=0023  fs=003b  gs=0000             efl=00000246
ntdll!LdrpDoDebuggerBreak+0x2c:
77bb04f6 cc              int     3
0:000> g
ModLoad: 75b90000 75bdc000   C:\Windows\system32\apphelp.dll
ModLoad: 67af0000 67c90000   C:\Windows\AppPatch\EMET.DLL
ModLoad: 77300000 773ac000   C:\Windows\system32\msvcrt.dll
ModLoad: 77ca0000 77d40000   C:\Windows\system32\ADVAPI32.dll
ModLoad: 76380000 76399000   C:\Windows\SYSTEM32\sechost.dll
ModLoad: 75f60000 76001000   C:\Windows\system32\RPCRT4.dll
(ea8.d34): Guard page violation - code 80000001 (first chance)
First chance exceptions are reported before any exception handling.
This exception may be expected and handled.
eax=0014fc78 ebx=00000000 ecx=00e91365 edx=00000000 esi=00e91324 edi=00000000
eip=75d78eb5 esp=0014fc4c ebp=0014fc64 iopl=0         nv up ei pl nz ac po nc
cs=001b  ss=0023  ds=0023  es=0023  fs=003b  gs=0000             efl=00010212
KERNELBASE!VirtualQueryEx+0x17:
75d78eb5 ff15d811d775    call    dword ptr [KERNELBASE!_imp__NtQueryVirtualMemory (75d711d8)] ds:0023:75d711d8={ntdll!NtQueryVirtualMemory (77b56258)}
0:000> g
(ea8.d34): Single step exception - code 80000004 (first chance)
First chance exceptions are reported before any exception handling.
This exception may be expected and handled.
eax=0014fc78 ebx=00000000 ecx=00e91365 edx=00000000 esi=00e91324 edi=00000000
eip=77b56258 esp=0014fc48 ebp=0014fc64 iopl=0         nv up ei pl nz ac po nc
cs=001b  ss=0023  ds=0023  es=0023  fs=003b  gs=0000             efl=00000212
ntdll!NtQueryVirtualMemory:
77b56258 b80b010000      mov     eax,10Bh
0:000> .restart

************* Symbol Path validation summary **************
Response                         Time (ms)     Location
Deferred                                       SRV*C:\windbgsymbols*http://msdl.microsoft.com/download/symbols
CommandLine: C:\emet2\emet2.exe

************* Symbol Path validation summary **************
Response                         Time (ms)     Location
Deferred                                       SRV*C:\windbgsymbols*http://msdl.microsoft.com/download/symbols
Symbol search path is: SRV*C:\windbgsymbols*http://msdl.microsoft.com/download/symbols
Executable search path is: 
ModLoad: 00f40000 00f46000   emet2.exe
ModLoad: 77b10000 77c4c000   ntdll.dll
ModLoad: 776e0000 777b4000   C:\Windows\system32\kernel32.dll
ModLoad: 75d70000 75dba000   C:\Windows\system32\KERNELBASE.dll
ModLoad: 60ed0000 60fbe000   C:\Windows\system32\MSVCR120.dll
(dc4.13e8): Break instruction exception - code 80000003 (first chance)
eax=00000000 ebx=00000000 ecx=0027f774 edx=77b570b4 esi=fffffffe edi=00000000
eip=77bb04f6 esp=0027f790 ebp=0027f7bc iopl=0         nv up ei pl zr na pe nc
cs=001b  ss=0023  ds=0023  es=0023  fs=003b  gs=0000             efl=00000246
ntdll!LdrpDoDebuggerBreak+0x2c:
77bb04f6 cc              int     3
0:000> ? kernel32
Evaluate expression: 2003697664 = 776e0000
0:000> bp kernel32 + 0x307f0
0:000> g
ModLoad: 75b90000 75bdc000   C:\Windows\system32\apphelp.dll
ModLoad: 65920000 65ac0000   C:\Windows\AppPatch\EMET.DLL
ModLoad: 77300000 773ac000   C:\Windows\system32\msvcrt.dll
ModLoad: 77ca0000 77d40000   C:\Windows\system32\ADVAPI32.dll
ModLoad: 76380000 76399000   C:\Windows\SYSTEM32\sechost.dll
ModLoad: 75f60000 76001000   C:\Windows\system32\RPCRT4.dll
(dc4.13e8): Guard page violation - code 80000001 (first chance)
First chance exceptions are reported before any exception handling.
This exception may be expected and handled.
eax=0027f914 ebx=00000000 ecx=00f41365 edx=00000000 esi=00f41324 edi=00000000
eip=75d78eb5 esp=0027f8e8 ebp=0027f900 iopl=0         nv up ei pl nz ac po nc
cs=001b  ss=0023  ds=0023  es=0023  fs=003b  gs=0000             efl=00010212
KERNELBASE!VirtualQueryEx+0x17:
75d78eb5 ff15d811d775    call    dword ptr [KERNELBASE!_imp__NtQueryVirtualMemory (75d711d8)] ds:0023:75d711d8={ntdll!NtQueryVirtualMemory (77b56258)}
0:000> p
WARNING: This break is not a step/trace completion.
The last command has been cleared to prevent
accidental continuation of this unrelated event.
Check the event, location and thread before resuming.
(dc4.13e8): Single step exception - code 80000004 (first chance)
First chance exceptions are reported before any exception handling.
This exception may be expected and handled.
eax=0027f914 ebx=00000000 ecx=00f41365 edx=00000000 esi=00f41324 edi=00000000
eip=77b56258 esp=0027f8e4 ebp=0027f900 iopl=0         nv up ei pl nz ac po nc
cs=001b  ss=0023  ds=0023  es=0023  fs=003b  gs=0000             efl=00000212
ntdll!NtQueryVirtualMemory:
77b56258 b80b010000      mov     eax,10Bh
0:000> 
0:000> 
0:000> 
0:000> p
eax=0000010b ebx=00000000 ecx=00f41365 edx=00000000 esi=00f41324 edi=00000000
eip=77b5625d esp=0027f8e4 ebp=0027f900 iopl=0         nv up ei pl nz ac po nc
cs=001b  ss=0023  ds=0023  es=0023  fs=003b  gs=0000             efl=00000212
ntdll!NtQueryVirtualMemory+0x5:
77b5625d ba0003fe7f      mov     edx,offset SharedUserData!SystemCallStub (7ffe0300)
0:000> p
eax=0000010b ebx=00000000 ecx=00f41365 edx=7ffe0300 esi=00f41324 edi=00000000
eip=77b56262 esp=0027f8e4 ebp=0027f900 iopl=0         nv up ei pl nz ac po nc
cs=001b  ss=0023  ds=0023  es=0023  fs=003b  gs=0000             efl=00000212
ntdll!NtQueryVirtualMemory+0xa:
77b56262 ff12            call    dword ptr [edx]      ds:0023:7ffe0300={ntdll!KiFastSystemCall (77b570b0)}
0:000> 
eax=00000000 ebx=00000000 ecx=0027f8e0 edx=77b570b4 esi=00f41324 edi=00000000
eip=77b56264 esp=0027f8e4 ebp=0027f900 iopl=0         nv up ei pl nz ac po nc
cs=001b  ss=0023  ds=0023  es=0023  fs=003b  gs=0000             efl=00000212
ntdll!NtQueryVirtualMemory+0xc:
77b56264 c21800          ret     18h
0:000> 
eax=00000000 ebx=00000000 ecx=0027f8e0 edx=77b570b4 esi=00f41324 edi=00000000
eip=75d78ebb esp=0027f900 ebp=0027f900 iopl=0         nv up ei pl nz ac po nc
cs=001b  ss=0023  ds=0023  es=0023  fs=003b  gs=0000             efl=00000212
KERNELBASE!VirtualQueryEx+0x1d:
75d78ebb 85c0            test    eax,eax
0:000> 
eax=00000000 ebx=00000000 ecx=0027f8e0 edx=77b570b4 esi=00f41324 edi=00000000
eip=75d78ebd esp=0027f900 ebp=0027f900 iopl=0         nv up ei pl zr na pe nc
cs=001b  ss=0023  ds=0023  es=0023  fs=003b  gs=0000             efl=00000246
KERNELBASE!VirtualQueryEx+0x1f:
75d78ebd 0f8c28110000    jl      KERNELBASE!VirtualQueryEx+0x26 (75d79feb) [br=0]
0:000> 
eax=00000000 ebx=00000000 ecx=0027f8e0 edx=77b570b4 esi=00f41324 edi=00000000
eip=75d78ec3 esp=0027f900 ebp=0027f900 iopl=0         nv up ei pl zr na pe nc
cs=001b  ss=0023  ds=0023  es=0023  fs=003b  gs=0000             efl=00000246
KERNELBASE!VirtualQueryEx+0x21:
75d78ec3 8b4514          mov     eax,dword ptr [ebp+14h] ss:0023:0027f914=0000001c
0:000> 
eax=0000001c ebx=00000000 ecx=0027f8e0 edx=77b570b4 esi=00f41324 edi=00000000
eip=75d78ec6 esp=0027f900 ebp=0027f900 iopl=0         nv up ei pl zr na pe nc
cs=001b  ss=0023  ds=0023  es=0023  fs=003b  gs=0000             efl=00000246
KERNELBASE!VirtualQueryEx+0x2e:
75d78ec6 5d              pop     ebp
0:000> 
eax=0000001c ebx=00000000 ecx=0027f8e0 edx=77b570b4 esi=00f41324 edi=00000000
eip=75d78ec7 esp=0027f904 ebp=0027f918 iopl=0         nv up ei pl zr na pe nc
cs=001b  ss=0023  ds=0023  es=0023  fs=003b  gs=0000             efl=00000246
KERNELBASE!VirtualQueryEx+0x2f:
75d78ec7 c21000          ret     10h
0:000> 
eax=0000001c ebx=00000000 ecx=0027f8e0 edx=77b570b4 esi=00f41324 edi=00000000
eip=75d78ee4 esp=0027f918 ebp=0027f918 iopl=0         nv up ei pl zr na pe nc
cs=001b  ss=0023  ds=0023  es=0023  fs=003b  gs=0000             efl=00000246
KERNELBASE!VirtualQuery+0x15:
75d78ee4 5d              pop     ebp
0:000> 
eax=0000001c ebx=00000000 ecx=0027f8e0 edx=77b570b4 esi=00f41324 edi=00000000
eip=75d78ee5 esp=0027f91c ebp=0027f960 iopl=0         nv up ei pl zr na pe nc
cs=001b  ss=0023  ds=0023  es=0023  fs=003b  gs=0000             efl=00000246
KERNELBASE!VirtualQuery+0x16:
75d78ee5 c20c00          ret     0Ch
0:000> 
eax=0000001c ebx=00000000 ecx=0027f8e0 edx=77b570b4 esi=00f41324 edi=00000000
eip=77733dde esp=0027f92c ebp=0027f960 iopl=0         nv up ei pl zr na pe nc
cs=001b  ss=0023  ds=0023  es=0023  fs=003b  gs=0000             efl=00000246
kernel32!BasepFillUEFInfo+0x18:
77733dde 85c0            test    eax,eax
0:000> 
eax=0000001c ebx=00000000 ecx=0027f8e0 edx=77b570b4 esi=00f41324 edi=00000000
eip=77733de0 esp=0027f92c ebp=0027f960 iopl=0         nv up ei pl nz na po nc
cs=001b  ss=0023  ds=0023  es=0023  fs=003b  gs=0000             efl=00000202
kernel32!BasepFillUEFInfo+0x1a:
77733de0 0f84682e0100    je      kernel32!BasepFillUEFInfo+0x85 (77746c4e) [br=0]
0:000> 
eax=0000001c ebx=00000000 ecx=0027f8e0 edx=77b570b4 esi=00f41324 edi=00000000
eip=77733de6 esp=0027f92c ebp=0027f960 iopl=0         nv up ei pl nz na po nc
cs=001b  ss=0023  ds=0023  es=0023  fs=003b  gs=0000             efl=00000202
kernel32!BasepFillUEFInfo+0x1c:
77733de6 f645dcf0        test    byte ptr [ebp-24h],0F0h    ss:0023:0027f93c=80
0:000> 
eax=0000001c ebx=00000000 ecx=0027f8e0 edx=77b570b4 esi=00f41324 edi=00000000
eip=77733dea esp=0027f92c ebp=0027f960 iopl=0         nv up ei ng nz na po nc
cs=001b  ss=0023  ds=0023  es=0023  fs=003b  gs=0000             efl=00000282
kernel32!BasepFillUEFInfo+0x20:
77733dea 0f845e2e0100    je      kernel32!BasepFillUEFInfo+0x85 (77746c4e) [br=0]
0:000> 
eax=0000001c ebx=00000000 ecx=0027f8e0 edx=77b570b4 esi=00f41324 edi=00000000
eip=77733df0 esp=0027f92c ebp=0027f960 iopl=0         nv up ei ng nz na po nc
cs=001b  ss=0023  ds=0023  es=0023  fs=003b  gs=0000             efl=00000282
kernel32!BasepFillUEFInfo+0x22:
77733df0 8b750c          mov     esi,dword ptr [ebp+0Ch] ss:0023:0027f96c=0027f978
0:000> 
eax=0000001c ebx=00000000 ecx=0027f8e0 edx=77b570b4 esi=0027f978 edi=00000000
eip=77733df3 esp=0027f92c ebp=0027f960 iopl=0         nv up ei ng nz na po nc
cs=001b  ss=0023  ds=0023  es=0023  fs=003b  gs=0000             efl=00000282
kernel32!BasepFillUEFInfo+0x25:
77733df3 85f6            test    esi,esi
0:000> 
eax=0000001c ebx=00000000 ecx=0027f8e0 edx=77b570b4 esi=0027f978 edi=00000000
eip=77733df5 esp=0027f92c ebp=0027f960 iopl=0         nv up ei pl nz na pe nc
cs=001b  ss=0023  ds=0023  es=0023  fs=003b  gs=0000             efl=00000206
kernel32!BasepFillUEFInfo+0x27:
77733df5 7453            je      kernel32!BasepFillUEFInfo+0x80 (77733e4a) [br=0]
0:000> 
eax=0000001c ebx=00000000 ecx=0027f8e0 edx=77b570b4 esi=0027f978 edi=00000000
eip=77733df7 esp=0027f92c ebp=0027f960 iopl=0         nv up ei pl nz na pe nc
cs=001b  ss=0023  ds=0023  es=0023  fs=003b  gs=0000             efl=00000206
kernel32!BasepFillUEFInfo+0x29:
77733df7 8b3d1c136e77    mov     edi,dword ptr [kernel32!_imp__NtQueryVirtualMemory (776e131c)] ds:0023:776e131c={ntdll!NtQueryVirtualMemory (77b56258)}
0:000> 
eax=0000001c ebx=00000000 ecx=0027f8e0 edx=77b570b4 esi=0027f978 edi=77b56258
eip=77733dfd esp=0027f92c ebp=0027f960 iopl=0         nv up ei pl nz na pe nc
cs=001b  ss=0023  ds=0023  es=0023  fs=003b  gs=0000             efl=00000206
kernel32!BasepFillUEFInfo+0x2f:
77733dfd 6a00            push    0
0:000> 
eax=0000001c ebx=00000000 ecx=0027f8e0 edx=77b570b4 esi=0027f978 edi=77b56258
eip=77733dff esp=0027f928 ebp=0027f960 iopl=0         nv up ei pl nz na pe nc
cs=001b  ss=0023  ds=0023  es=0023  fs=003b  gs=0000             efl=00000206
kernel32!BasepFillUEFInfo+0x31:
77733dff 6a10            push    10h
0:000> 
eax=0000001c ebx=00000000 ecx=0027f8e0 edx=77b570b4 esi=0027f978 edi=77b56258
eip=77733e01 esp=0027f924 ebp=0027f960 iopl=0         nv up ei pl nz na pe nc
cs=001b  ss=0023  ds=0023  es=0023  fs=003b  gs=0000             efl=00000206
kernel32!BasepFillUEFInfo+0x33:
77733e01 8d45f0          lea     eax,[ebp-10h]
0:000> 
eax=0027f950 ebx=00000000 ecx=0027f8e0 edx=77b570b4 esi=0027f978 edi=77b56258
eip=77733e04 esp=0027f924 ebp=0027f960 iopl=0         nv up ei pl nz na pe nc
cs=001b  ss=0023  ds=0023  es=0023  fs=003b  gs=0000             efl=00000206
kernel32!BasepFillUEFInfo+0x36:
77733e04 50              push    eax
0:000> 
eax=0027f950 ebx=00000000 ecx=0027f8e0 edx=77b570b4 esi=0027f978 edi=77b56258
eip=77733e05 esp=0027f920 ebp=0027f960 iopl=0         nv up ei pl nz na pe nc
cs=001b  ss=0023  ds=0023  es=0023  fs=003b  gs=0000             efl=00000206
kernel32!BasepFillUEFInfo+0x37:
77733e05 6a03            push    3
0:000> 
eax=0027f950 ebx=00000000 ecx=0027f8e0 edx=77b570b4 esi=0027f978 edi=77b56258
eip=77733e07 esp=0027f91c ebp=0027f960 iopl=0         nv up ei pl nz na pe nc
cs=001b  ss=0023  ds=0023  es=0023  fs=003b  gs=0000             efl=00000206
kernel32!BasepFillUEFInfo+0x39:
77733e07 ff7508          push    dword ptr [ebp+8]    ss:0023:0027f968={emet2!__CxxUnhandledExceptionFilter (00f41324)}
0:000> 
eax=0027f950 ebx=00000000 ecx=0027f8e0 edx=77b570b4 esi=0027f978 edi=77b56258
eip=77733e0a esp=0027f918 ebp=0027f960 iopl=0         nv up ei pl nz na pe nc
cs=001b  ss=0023  ds=0023  es=0023  fs=003b  gs=0000             efl=00000206
kernel32!BasepFillUEFInfo+0x3c:
77733e0a 6aff            push    0FFFFFFFFh
0:000> 
eax=0027f950 ebx=00000000 ecx=0027f8e0 edx=77b570b4 esi=0027f978 edi=77b56258
eip=77733e0c esp=0027f914 ebp=0027f960 iopl=0         nv up ei pl nz na pe nc
cs=001b  ss=0023  ds=0023  es=0023  fs=003b  gs=0000             efl=00000206
kernel32!BasepFillUEFInfo+0x3e:
77733e0c ffd7            call    edi {ntdll!NtQueryVirtualMemory (77b56258)}
0:000> 
eax=00000000 ebx=00000000 ecx=0027f90c edx=77b570b4 esi=0027f978 edi=77b56258
eip=77733e0e esp=0027f92c ebp=0027f960 iopl=0         nv up ei pl nz na pe nc
cs=001b  ss=0023  ds=0023  es=0023  fs=003b  gs=0000             efl=00000206
kernel32!BasepFillUEFInfo+0x40:
77733e0e 85c0            test    eax,eax
0:000> 
eax=00000000 ebx=00000000 ecx=0027f90c edx=77b570b4 esi=0027f978 edi=77b56258
eip=77733e10 esp=0027f92c ebp=0027f960 iopl=0         nv up ei pl zr na pe nc
cs=001b  ss=0023  ds=0023  es=0023  fs=003b  gs=0000             efl=00000246
kernel32!BasepFillUEFInfo+0x42:
77733e10 0f8c382e0100    jl      kernel32!BasepFillUEFInfo+0x85 (77746c4e) [br=0]
0:000> 
eax=00000000 ebx=00000000 ecx=0027f90c edx=77b570b4 esi=0027f978 edi=77b56258
eip=77733e16 esp=0027f92c ebp=0027f960 iopl=0         nv up ei pl zr na pe nc
cs=001b  ss=0023  ds=0023  es=0023  fs=003b  gs=0000             efl=00000246
kernel32!BasepFillUEFInfo+0x44:
77733e16 8b4dd8          mov     ecx,dword ptr [ebp-28h] ss:0023:0027f938={emet2!__ImageBase (00f40000)}
0:000> 
eax=00000000 ebx=00000000 ecx=00f40000 edx=77b570b4 esi=0027f978 edi=77b56258
eip=77733e19 esp=0027f92c ebp=0027f960 iopl=0         nv up ei pl zr na pe nc
cs=001b  ss=0023  ds=0023  es=0023  fs=003b  gs=0000             efl=00000246
kernel32!BasepFillUEFInfo+0x47:
77733e19 8b45ec          mov     eax,dword ptr [ebp-14h] ss:0023:0027f94c=01000000
0:000> 
eax=01000000 ebx=00000000 ecx=00f40000 edx=77b570b4 esi=0027f978 edi=77b56258
eip=77733e1c esp=0027f92c ebp=0027f960 iopl=0         nv up ei pl zr na pe nc
cs=001b  ss=0023  ds=0023  es=0023  fs=003b  gs=0000             efl=00000246
kernel32!BasepFillUEFInfo+0x4a:
77733e1c 890e            mov     dword ptr [esi],ecx  ds:0023:0027f978=00000001
0:000> 
eax=01000000 ebx=00000000 ecx=00f40000 edx=77b570b4 esi=0027f978 edi=77b56258
eip=77733e1e esp=0027f92c ebp=0027f960 iopl=0         nv up ei pl zr na pe nc
cs=001b  ss=0023  ds=0023  es=0023  fs=003b  gs=0000             efl=00000246
kernel32!BasepFillUEFInfo+0x4c:
77733e1e 8b4dfc          mov     ecx,dword ptr [ebp-4] ss:0023:0027f95c=00006000
0:000> 
eax=01000000 ebx=00000000 ecx=00006000 edx=77b570b4 esi=0027f978 edi=77b56258
eip=77733e21 esp=0027f92c ebp=0027f960 iopl=0         nv up ei pl zr na pe nc
cs=001b  ss=0023  ds=0023  es=0023  fs=003b  gs=0000             efl=00000246
kernel32!BasepFillUEFInfo+0x4f:
77733e21 894608          mov     dword ptr [esi+8],eax ds:0023:0027f980=00000000
0:000> 
eax=01000000 ebx=00000000 ecx=00006000 edx=77b570b4 esi=0027f978 edi=77b56258
eip=77733e24 esp=0027f92c ebp=0027f960 iopl=0         nv up ei pl zr na pe nc
cs=001b  ss=0023  ds=0023  es=0023  fs=003b  gs=0000             efl=00000246
kernel32!BasepFillUEFInfo+0x52:
77733e24 894e04          mov     dword ptr [esi+4],ecx ds:0023:0027f97c=00000000
0:000> 
eax=01000000 ebx=00000000 ecx=00006000 edx=77b570b4 esi=0027f978 edi=77b56258
eip=77733e27 esp=0027f92c ebp=0027f960 iopl=0         nv up ei pl zr na pe nc
cs=001b  ss=0023  ds=0023  es=0023  fs=003b  gs=0000             efl=00000246
kernel32!BasepFillUEFInfo+0x55:
77733e27 a900000401      test    eax,1040000h
0:000> 
eax=01000000 ebx=00000000 ecx=00006000 edx=77b570b4 esi=0027f978 edi=77b56258
eip=77733e2c esp=0027f92c ebp=0027f960 iopl=0         nv up ei pl nz na pe nc
cs=001b  ss=0023  ds=0023  es=0023  fs=003b  gs=0000             efl=00000206
kernel32!BasepFillUEFInfo+0x5a:
77733e2c 741c            je      kernel32!BasepFillUEFInfo+0x80 (77733e4a) [br=0]
0:000> 
eax=01000000 ebx=00000000 ecx=00006000 edx=77b570b4 esi=0027f978 edi=77b56258
eip=77733e2e esp=0027f92c ebp=0027f960 iopl=0         nv up ei pl nz na pe nc
cs=001b  ss=0023  ds=0023  es=0023  fs=003b  gs=0000             efl=00000206
kernel32!BasepFillUEFInfo+0x5c:
77733e2e 6a00            push    0
0:000> 
eax=01000000 ebx=00000000 ecx=00006000 edx=77b570b4 esi=0027f978 edi=77b56258
eip=77733e30 esp=0027f928 ebp=0027f960 iopl=0         nv up ei pl nz na pe nc
cs=001b  ss=0023  ds=0023  es=0023  fs=003b  gs=0000             efl=00000206
kernel32!BasepFillUEFInfo+0x5e:
77733e30 6812020000      push    212h
0:000> 
eax=01000000 ebx=00000000 ecx=00006000 edx=77b570b4 esi=0027f978 edi=77b56258
eip=77733e35 esp=0027f924 ebp=0027f960 iopl=0         nv up ei pl nz na pe nc
cs=001b  ss=0023  ds=0023  es=0023  fs=003b  gs=0000             efl=00000206
kernel32!BasepFillUEFInfo+0x63:
77733e35 83c60c          add     esi,0Ch
0:000> 
eax=01000000 ebx=00000000 ecx=00006000 edx=77b570b4 esi=0027f984 edi=77b56258
eip=77733e38 esp=0027f924 ebp=0027f960 iopl=0         nv up ei pl nz ac pe nc
cs=001b  ss=0023  ds=0023  es=0023  fs=003b  gs=0000             efl=00000216
kernel32!BasepFillUEFInfo+0x66:
77733e38 56              push    esi
0:000> 
eax=01000000 ebx=00000000 ecx=00006000 edx=77b570b4 esi=0027f984 edi=77b56258
eip=77733e39 esp=0027f920 ebp=0027f960 iopl=0         nv up ei pl nz ac pe nc
cs=001b  ss=0023  ds=0023  es=0023  fs=003b  gs=0000             efl=00000216
kernel32!BasepFillUEFInfo+0x67:
77733e39 6a02            push    2
0:000> 
eax=01000000 ebx=00000000 ecx=00006000 edx=77b570b4 esi=0027f984 edi=77b56258
eip=77733e3b esp=0027f91c ebp=0027f960 iopl=0         nv up ei pl nz ac pe nc
cs=001b  ss=0023  ds=0023  es=0023  fs=003b  gs=0000             efl=00000216
kernel32!BasepFillUEFInfo+0x69:
77733e3b ff7508          push    dword ptr [ebp+8]    ss:0023:0027f968={emet2!__CxxUnhandledExceptionFilter (00f41324)}
0:000> 
eax=01000000 ebx=00000000 ecx=00006000 edx=77b570b4 esi=0027f984 edi=77b56258
eip=77733e3e esp=0027f918 ebp=0027f960 iopl=0         nv up ei pl nz ac pe nc
cs=001b  ss=0023  ds=0023  es=0023  fs=003b  gs=0000             efl=00000216
kernel32!BasepFillUEFInfo+0x6c:
77733e3e 6aff            push    0FFFFFFFFh
0:000> 
eax=01000000 ebx=00000000 ecx=00006000 edx=77b570b4 esi=0027f984 edi=77b56258
eip=77733e40 esp=0027f914 ebp=0027f960 iopl=0         nv up ei pl nz ac pe nc
cs=001b  ss=0023  ds=0023  es=0023  fs=003b  gs=0000             efl=00000216
kernel32!BasepFillUEFInfo+0x6e:
77733e40 ffd7            call    edi {ntdll!NtQueryVirtualMemory (77b56258)}
0:000> 
eax=00000000 ebx=00000000 ecx=0027f90c edx=77b570b4 esi=0027f984 edi=77b56258
eip=77733e42 esp=0027f92c ebp=0027f960 iopl=0         nv up ei pl nz ac pe nc
cs=001b  ss=0023  ds=0023  es=0023  fs=003b  gs=0000             efl=00000216
kernel32!BasepFillUEFInfo+0x70:
77733e42 85c0            test    eax,eax
0:000> 
eax=00000000 ebx=00000000 ecx=0027f90c edx=77b570b4 esi=0027f984 edi=77b56258
eip=77733e44 esp=0027f92c ebp=0027f960 iopl=0         nv up ei pl zr na pe nc
cs=001b  ss=0023  ds=0023  es=0023  fs=003b  gs=0000             efl=00000246
kernel32!BasepFillUEFInfo+0x72:
77733e44 0f8c15840200    jl      kernel32!BasepFillUEFInfo+0x74 (7775c25f) [br=0]
0:000> 
eax=00000000 ebx=00000000 ecx=0027f90c edx=77b570b4 esi=0027f984 edi=77b56258
eip=77733e4a esp=0027f92c ebp=0027f960 iopl=0         nv up ei pl zr na pe nc
cs=001b  ss=0023  ds=0023  es=0023  fs=003b  gs=0000             efl=00000246
kernel32!BasepFillUEFInfo+0x80:
77733e4a 33c0            xor     eax,eax
0:000> 
eax=00000000 ebx=00000000 ecx=0027f90c edx=77b570b4 esi=0027f984 edi=77b56258
eip=77733e4c esp=0027f92c ebp=0027f960 iopl=0         nv up ei pl zr na pe nc
cs=001b  ss=0023  ds=0023  es=0023  fs=003b  gs=0000             efl=00000246
kernel32!BasepFillUEFInfo+0x82:
77733e4c 40              inc     eax
0:000> 
eax=00000001 ebx=00000000 ecx=0027f90c edx=77b570b4 esi=0027f984 edi=77b56258
eip=77733e4d esp=0027f92c ebp=0027f960 iopl=0         nv up ei pl nz na po nc
cs=001b  ss=0023  ds=0023  es=0023  fs=003b  gs=0000             efl=00000202
kernel32!BasepFillUEFInfo+0x87:
77733e4d 5f              pop     edi
0:000> 
eax=00000001 ebx=00000000 ecx=0027f90c edx=77b570b4 esi=0027f984 edi=00000000
eip=77733e4e esp=0027f930 ebp=0027f960 iopl=0         nv up ei pl nz na po nc
cs=001b  ss=0023  ds=0023  es=0023  fs=003b  gs=0000             efl=00000202
kernel32!BasepFillUEFInfo+0x88:
77733e4e 5e              pop     esi
0:000> 
eax=00000001 ebx=00000000 ecx=0027f90c edx=77b570b4 esi=00f41324 edi=00000000
eip=77733e4f esp=0027f934 ebp=0027f960 iopl=0         nv up ei pl nz na po nc
cs=001b  ss=0023  ds=0023  es=0023  fs=003b  gs=0000             efl=00000202
kernel32!BasepFillUEFInfo+0x89:
77733e4f c9              leave
0:000> 
*** ERROR: Symbol file could not be found.  Defaulted to export symbols for C:\Windows\system32\MSVCR120.dll - 
eax=00000001 ebx=00000000 ecx=0027f90c edx=77b570b4 esi=00f41324 edi=00000000
eip=77733e50 esp=0027f964 ebp=0027fb98 iopl=0         nv up ei pl nz na po nc
cs=001b  ss=0023  ds=0023  es=0023  fs=003b  gs=0000             efl=00000202
kernel32!BasepFillUEFInfo+0x8a:
77733e50 c20800          ret     8
0:000> 
eax=00000001 ebx=00000000 ecx=0027f90c edx=77b570b4 esi=00f41324 edi=00000000
eip=77733d26 esp=0027f970 ebp=0027fb98 iopl=0         nv up ei pl nz na po nc
cs=001b  ss=0023  ds=0023  es=0023  fs=003b  gs=0000             efl=00000202
kernel32!SetUnhandledExceptionFilter+0x21:
77733d26 85c0            test    eax,eax
0:000> 
eax=00000001 ebx=00000000 ecx=0027f90c edx=77b570b4 esi=00f41324 edi=00000000
eip=77733d28 esp=0027f970 ebp=0027fb98 iopl=0         nv up ei pl nz na po nc
cs=001b  ss=0023  ds=0023  es=0023  fs=003b  gs=0000             efl=00000202
kernel32!SetUnhandledExceptionFilter+0x23:
77733d28 0f84272f0100    je      kernel32!SetUnhandledExceptionFilter+0x25 (77746c55) [br=0]
0:000> 
eax=00000001 ebx=00000000 ecx=0027f90c edx=77b570b4 esi=00f41324 edi=00000000
eip=77733d2e esp=0027f970 ebp=0027fb98 iopl=0         nv up ei pl nz na po nc
cs=001b  ss=0023  ds=0023  es=0023  fs=003b  gs=0000             efl=00000202
kernel32!SetUnhandledExceptionFilter+0x27:
77733d2e 85f6            test    esi,esi
0:000> 
eax=00000001 ebx=00000000 ecx=0027f90c edx=77b570b4 esi=00f41324 edi=00000000
eip=77733d30 esp=0027f970 ebp=0027fb98 iopl=0         nv up ei pl nz na pe nc
cs=001b  ss=0023  ds=0023  es=0023  fs=003b  gs=0000             efl=00000206
kernel32!SetUnhandledExceptionFilter+0x29:
77733d30 0f84c34b0100    je      kernel32!SetUnhandledExceptionFilter+0x93 (777488f9) [br=0]
0:000> 
eax=00000001 ebx=00000000 ecx=0027f90c edx=77b570b4 esi=00f41324 edi=00000000
eip=77733d36 esp=0027f970 ebp=0027fb98 iopl=0         nv up ei pl nz na pe nc
cs=001b  ss=0023  ds=0023  es=0023  fs=003b  gs=0000             efl=00000206
kernel32!SetUnhandledExceptionFilter+0x2b:
77733d36 8b1d9c677a77    mov     ebx,dword ptr [kernel32!BasepFilterInfo (777a679c)] ds:0023:777a679c=00000000
0:000> 
eax=00000001 ebx=00000000 ecx=0027f90c edx=77b570b4 esi=00f41324 edi=00000000
eip=77733d3c esp=0027f970 ebp=0027fb98 iopl=0         nv up ei pl nz na pe nc
cs=001b  ss=0023  ds=0023  es=0023  fs=003b  gs=0000             efl=00000206
kernel32!SetUnhandledExceptionFilter+0x31:
77733d3c 85db            test    ebx,ebx
0:000> 
eax=00000001 ebx=00000000 ecx=0027f90c edx=77b570b4 esi=00f41324 edi=00000000
eip=77733d3e esp=0027f970 ebp=0027fb98 iopl=0         nv up ei pl zr na pe nc
cs=001b  ss=0023  ds=0023  es=0023  fs=003b  gs=0000             efl=00000246
kernel32!SetUnhandledExceptionFilter+0x33:
77733d3e 0f840f010000    je      kernel32!SetUnhandledExceptionFilter+0x35 (77733e53) [br=1]
0:000> 
eax=00000001 ebx=00000000 ecx=0027f90c edx=77b570b4 esi=00f41324 edi=00000000
eip=77733e53 esp=0027f970 ebp=0027fb98 iopl=0         nv up ei pl zr na pe nc
cs=001b  ss=0023  ds=0023  es=0023  fs=003b  gs=0000             efl=00000246
kernel32!SetUnhandledExceptionFilter+0x35:
77733e53 e8b87effff      call    kernel32!KernelBaseGetGlobalData (7772bd10)
0:000> 
eax=75db40f0 ebx=00000000 ecx=0027f90c edx=77b570b4 esi=00f41324 edi=00000000
eip=77733e58 esp=0027f970 ebp=0027fb98 iopl=0         nv up ei pl zr na pe nc
cs=001b  ss=0023  ds=0023  es=0023  fs=003b  gs=0000             efl=00000246
kernel32!SetUnhandledExceptionFilter+0x3a:
77733e58 8b402c          mov     eax,dword ptr [eax+2Ch] ds:0023:75db411c=00000000
0:000> 
eax=00000000 ebx=00000000 ecx=0027f90c edx=77b570b4 esi=00f41324 edi=00000000
eip=77733e5b esp=0027f970 ebp=0027fb98 iopl=0         nv up ei pl zr na pe nc
cs=001b  ss=0023  ds=0023  es=0023  fs=003b  gs=0000             efl=00000246
kernel32!SetUnhandledExceptionFilter+0x3d:
77733e5b 648b0d18000000  mov     ecx,dword ptr fs:[18h] fs:003b:00000018=7ffdf000
0:000> 
eax=00000000 ebx=00000000 ecx=7ffdf000 edx=77b570b4 esi=00f41324 edi=00000000
eip=77733e62 esp=0027f970 ebp=0027fb98 iopl=0         nv up ei pl zr na pe nc
cs=001b  ss=0023  ds=0023  es=0023  fs=003b  gs=0000             efl=00000246
kernel32!SetUnhandledExceptionFilter+0x44:
77733e62 6840040000      push    440h
0:000> 
eax=00000000 ebx=00000000 ecx=7ffdf000 edx=77b570b4 esi=00f41324 edi=00000000
eip=77733e67 esp=0027f96c ebp=0027fb98 iopl=0         nv up ei pl zr na pe nc
cs=001b  ss=0023  ds=0023  es=0023  fs=003b  gs=0000             efl=00000246
kernel32!SetUnhandledExceptionFilter+0x49:
77733e67 0500002c00      add     eax,2C0000h
0:000> 
eax=002c0000 ebx=00000000 ecx=7ffdf000 edx=77b570b4 esi=00f41324 edi=00000000
eip=77733e6c esp=0027f96c ebp=0027fb98 iopl=0         nv up ei pl nz na pe nc
cs=001b  ss=0023  ds=0023  es=0023  fs=003b  gs=0000             efl=00000206
kernel32!SetUnhandledExceptionFilter+0x4e:
77733e6c 50              push    eax
0:000> 
eax=002c0000 ebx=00000000 ecx=7ffdf000 edx=77b570b4 esi=00f41324 edi=00000000
eip=77733e6d esp=0027f968 ebp=0027fb98 iopl=0         nv up ei pl nz na pe nc
cs=001b  ss=0023  ds=0023  es=0023  fs=003b  gs=0000             efl=00000206
kernel32!SetUnhandledExceptionFilter+0x4f:
77733e6d 8b4130          mov     eax,dword ptr [ecx+30h] ds:0023:7ffdf030=7ffd6000
0:000> 
eax=7ffd6000 ebx=00000000 ecx=7ffdf000 edx=77b570b4 esi=00f41324 edi=00000000
eip=77733e70 esp=0027f968 ebp=0027fb98 iopl=0         nv up ei pl nz na pe nc
cs=001b  ss=0023  ds=0023  es=0023  fs=003b  gs=0000             efl=00000206
kernel32!SetUnhandledExceptionFilter+0x52:
77733e70 ff7018          push    dword ptr [eax+18h]  ds:0023:7ffd6018=00380000
0:000> 
eax=7ffd6000 ebx=00000000 ecx=7ffdf000 edx=77b570b4 esi=00f41324 edi=00000000
eip=77733e73 esp=0027f964 ebp=0027fb98 iopl=0         nv up ei pl nz na pe nc
cs=001b  ss=0023  ds=0023  es=0023  fs=003b  gs=0000             efl=00000206
kernel32!SetUnhandledExceptionFilter+0x55:
77733e73 ff1514166e77    call    dword ptr [kernel32!_imp__RtlAllocateHeap (776e1614)] ds:0023:776e1614={ntdll!RtlAllocateHeap (77b62dd6)}
0:000> 
eax=003b0050 ebx=00000000 ecx=77b65dd3 edx=00380174 esi=00f41324 edi=00000000
eip=77733e79 esp=0027f970 ebp=0027fb98 iopl=0         nv up ei pl zr na pe nc
cs=001b  ss=0023  ds=0023  es=0023  fs=003b  gs=0000             efl=00000246
kernel32!SetUnhandledExceptionFilter+0x5b:
77733e79 8bd8            mov     ebx,eax
0:000> 
eax=003b0050 ebx=003b0050 ecx=77b65dd3 edx=00380174 esi=00f41324 edi=00000000
eip=77733e7b esp=0027f970 ebp=0027fb98 iopl=0         nv up ei pl zr na pe nc
cs=001b  ss=0023  ds=0023  es=0023  fs=003b  gs=0000             efl=00000246
kernel32!SetUnhandledExceptionFilter+0x5d:
77733e7b 85db            test    ebx,ebx
0:000> 
eax=003b0050 ebx=003b0050 ecx=77b65dd3 edx=00380174 esi=00f41324 edi=00000000
eip=77733e7d esp=0027f970 ebp=0027fb98 iopl=0         nv up ei pl nz na pe nc
cs=001b  ss=0023  ds=0023  es=0023  fs=003b  gs=0000             efl=00000206
kernel32!SetUnhandledExceptionFilter+0x5f:
77733e7d 0f84d92d0100    je      kernel32!SetUnhandledExceptionFilter+0x8f (77746c5c) [br=0]
0:000> 
eax=003b0050 ebx=003b0050 ecx=77b65dd3 edx=00380174 esi=00f41324 edi=00000000
eip=77733e83 esp=0027f970 ebp=0027fb98 iopl=0         nv up ei pl nz na pe nc
cs=001b  ss=0023  ds=0023  es=0023  fs=003b  gs=0000             efl=00000206
kernel32!SetUnhandledExceptionFilter+0x61:
77733e83 6a00            push    0
0:000> 
eax=003b0050 ebx=003b0050 ecx=77b65dd3 edx=00380174 esi=00f41324 edi=00000000
eip=77733e85 esp=0027f96c ebp=0027fb98 iopl=0         nv up ei pl nz na pe nc
cs=001b  ss=0023  ds=0023  es=0023  fs=003b  gs=0000             efl=00000206
kernel32!SetUnhandledExceptionFilter+0x63:
77733e85 53              push    ebx
0:000> 
eax=003b0050 ebx=003b0050 ecx=77b65dd3 edx=00380174 esi=00f41324 edi=00000000
eip=77733e86 esp=0027f968 ebp=0027fb98 iopl=0         nv up ei pl nz na pe nc
cs=001b  ss=0023  ds=0023  es=0023  fs=003b  gs=0000             efl=00000206
kernel32!SetUnhandledExceptionFilter+0x64:
77733e86 689c677a77      push    offset kernel32!BasepFilterInfo (777a679c)
0:000> 
eax=003b0050 ebx=003b0050 ecx=77b65dd3 edx=00380174 esi=00f41324 edi=00000000
eip=77733e8b esp=0027f964 ebp=0027fb98 iopl=0         nv up ei pl nz na pe nc
cs=001b  ss=0023  ds=0023  es=0023  fs=003b  gs=0000             efl=00000206
kernel32!SetUnhandledExceptionFilter+0x69:
77733e8b e8bc7cffff      call    kernel32!InterlockedCompareExchange (7772bb4c)
0:000> 
eax=00000000 ebx=003b0050 ecx=777a679c edx=003b0050 esi=00f41324 edi=00000000
eip=77733e90 esp=0027f970 ebp=0027fb98 iopl=0         nv up ei pl zr na pe nc
cs=001b  ss=0023  ds=0023  es=0023  fs=003b  gs=0000             efl=00000246
kernel32!SetUnhandledExceptionFilter+0x6e:
77733e90 85c0            test    eax,eax
0:000> 
eax=00000000 ebx=003b0050 ecx=777a679c edx=003b0050 esi=00f41324 edi=00000000
eip=77733e92 esp=0027f970 ebp=0027fb98 iopl=0         nv up ei pl zr na pe nc
cs=001b  ss=0023  ds=0023  es=0023  fs=003b  gs=0000             efl=00000246
kernel32!SetUnhandledExceptionFilter+0x70:
77733e92 0f84acfeffff    je      kernel32!SetUnhandledExceptionFilter+0x95 (77733d44) [br=1]
0:000> 
eax=00000000 ebx=003b0050 ecx=777a679c edx=003b0050 esi=00f41324 edi=00000000
eip=77733d44 esp=0027f970 ebp=0027fb98 iopl=0         nv up ei pl zr na pe nc
cs=001b  ss=0023  ds=0023  es=0023  fs=003b  gs=0000             efl=00000246
kernel32!SetUnhandledExceptionFilter+0x95:
77733d44 56              push    esi
0:000> 
eax=00000000 ebx=003b0050 ecx=777a679c edx=003b0050 esi=00f41324 edi=00000000
eip=77733d45 esp=0027f96c ebp=0027fb98 iopl=0         nv up ei pl zr na pe nc
cs=001b  ss=0023  ds=0023  es=0023  fs=003b  gs=0000             efl=00000246
kernel32!SetUnhandledExceptionFilter+0x96:
77733d45 ff1568136e77    call    dword ptr [kernel32!_imp__RtlEncodePointer (776e1368)] ds:0023:776e1368={ntdll!RtlEncodePointer (77b6a295)}
0:000> 
eax=b2dd7136 ebx=003b0050 ecx=0027f91f edx=77b570b4 esi=00f41324 edi=00000000
eip=77733d4b esp=0027f970 ebp=0027fb98 iopl=0         ov up ei pl nz na po cy
cs=001b  ss=0023  ds=0023  es=0023  fs=003b  gs=0000             efl=00000a03
kernel32!SetUnhandledExceptionFilter+0x9c:
77733d4b 688c677a77      push    offset kernel32!BasepUEFLock (777a678c)
0:000> 
eax=b2dd7136 ebx=003b0050 ecx=0027f91f edx=77b570b4 esi=00f41324 edi=00000000
eip=77733d50 esp=0027f96c ebp=0027fb98 iopl=0         ov up ei pl nz na po cy
cs=001b  ss=0023  ds=0023  es=0023  fs=003b  gs=0000             efl=00000a03
kernel32!SetUnhandledExceptionFilter+0xa1:
77733d50 894508          mov     dword ptr [ebp+8],eax ss:0023:0027fba0={emet2!__CxxUnhandledExceptionFilter (00f41324)}
0:000> 
eax=b2dd7136 ebx=003b0050 ecx=0027f91f edx=77b570b4 esi=00f41324 edi=00000000
eip=77733d53 esp=0027f96c ebp=0027fb98 iopl=0         ov up ei pl nz na po cy
cs=001b  ss=0023  ds=0023  es=0023  fs=003b  gs=0000             efl=00000a03
kernel32!SetUnhandledExceptionFilter+0xa4:
77733d53 ff156c136e77    call    dword ptr [kernel32!_imp__RtlAcquireSRWLockExclusive (776e136c)] ds:0023:776e136c={ntdll!RtlAcquireSRWLockExclusive (77b6334e)}
0:000> 
eax=777a678c ebx=003b0050 ecx=0027f91f edx=77b570b4 esi=00f41324 edi=00000000
eip=77733d59 esp=0027f970 ebp=0027fb98 iopl=0         nv up ei pl zr na pe nc
cs=001b  ss=0023  ds=0023  es=0023  fs=003b  gs=0000             efl=00000246
kernel32!SetUnhandledExceptionFilter+0xaa:
77733d59 85f6            test    esi,esi
0:000> 
eax=777a678c ebx=003b0050 ecx=0027f91f edx=77b570b4 esi=00f41324 edi=00000000
eip=77733d5b esp=0027f970 ebp=0027fb98 iopl=0         nv up ei pl nz na pe nc
cs=001b  ss=0023  ds=0023  es=0023  fs=003b  gs=0000             efl=00000206
kernel32!SetUnhandledExceptionFilter+0xac:
77733d5b 7426            je      kernel32!SetUnhandledExceptionFilter+0xd4 (77733d83) [br=0]
0:000> 
eax=777a678c ebx=003b0050 ecx=0027f91f edx=77b570b4 esi=00f41324 edi=00000000
eip=77733d5d esp=0027f970 ebp=0027fb98 iopl=0         nv up ei pl nz na pe nc
cs=001b  ss=0023  ds=0023  es=0023  fs=003b  gs=0000             efl=00000206
kernel32!SetUnhandledExceptionFilter+0xae:
77733d5d 57              push    edi
0:000> 
eax=777a678c ebx=003b0050 ecx=0027f91f edx=77b570b4 esi=00f41324 edi=00000000
eip=77733d5e esp=0027f96c ebp=0027fb98 iopl=0         nv up ei pl nz na pe nc
cs=001b  ss=0023  ds=0023  es=0023  fs=003b  gs=0000             efl=00000206
kernel32!SetUnhandledExceptionFilter+0xaf:
77733d5e b988000000      mov     ecx,88h
0:000> 
eax=777a678c ebx=003b0050 ecx=00000088 edx=77b570b4 esi=00f41324 edi=00000000
eip=77733d63 esp=0027f96c ebp=0027fb98 iopl=0         nv up ei pl nz na pe nc
cs=001b  ss=0023  ds=0023  es=0023  fs=003b  gs=0000             efl=00000206
kernel32!SetUnhandledExceptionFilter+0xb4:
77733d63 8db5e0fdffff    lea     esi,[ebp-220h]
0:000> 
eax=777a678c ebx=003b0050 ecx=00000088 edx=77b570b4 esi=0027f978 edi=00000000
eip=77733d69 esp=0027f96c ebp=0027fb98 iopl=0         nv up ei pl nz na pe nc
cs=001b  ss=0023  ds=0023  es=0023  fs=003b  gs=0000             efl=00000206
kernel32!SetUnhandledExceptionFilter+0xba:
77733d69 8bfb            mov     edi,ebx
0:000> 
eax=777a678c ebx=003b0050 ecx=00000088 edx=77b570b4 esi=0027f978 edi=003b0050
eip=77733d6b esp=0027f96c ebp=0027fb98 iopl=0         nv up ei pl nz na pe nc
cs=001b  ss=0023  ds=0023  es=0023  fs=003b  gs=0000             efl=00000206
kernel32!SetUnhandledExceptionFilter+0xbc:
77733d6b f3a5            rep movs dword ptr es:[edi],dword ptr [esi]
0:000> 
eax=777a678c ebx=003b0050 ecx=00000000 edx=77b570b4 esi=0027fb98 edi=003b0270
eip=77733d6d esp=0027f96c ebp=0027fb98 iopl=0         nv up ei pl nz na pe nc
cs=001b  ss=0023  ds=0023  es=0023  fs=003b  gs=0000             efl=00000206
kernel32!SetUnhandledExceptionFilter+0xbe:
77733d6d f7430800000401  test    dword ptr [ebx+8],1040000h ds:0023:003b0058=01000000
0:000> 
eax=777a678c ebx=003b0050 ecx=00000000 edx=77b570b4 esi=0027fb98 edi=003b0270
eip=77733d74 esp=0027f96c ebp=0027fb98 iopl=0         nv up ei pl nz na pe nc
cs=001b  ss=0023  ds=0023  es=0023  fs=003b  gs=0000             efl=00000206
kernel32!SetUnhandledExceptionFilter+0xc5:
77733d74 5f              pop     edi
0:000> 
eax=777a678c ebx=003b0050 ecx=00000000 edx=77b570b4 esi=0027fb98 edi=00000000
eip=77733d75 esp=0027f970 ebp=0027fb98 iopl=0         nv up ei pl nz na pe nc
cs=001b  ss=0023  ds=0023  es=0023  fs=003b  gs=0000             efl=00000206
kernel32!SetUnhandledExceptionFilter+0xc6:
77733d75 740c            je      kernel32!SetUnhandledExceptionFilter+0xd4 (77733d83) [br=0]
0:000> 
eax=777a678c ebx=003b0050 ecx=00000000 edx=77b570b4 esi=0027fb98 edi=00000000
eip=77733d77 esp=0027f970 ebp=0027fb98 iopl=0         nv up ei pl nz na pe nc
cs=001b  ss=0023  ds=0023  es=0023  fs=003b  gs=0000             efl=00000206
kernel32!SetUnhandledExceptionFilter+0xc8:
77733d77 837b1000        cmp     dword ptr [ebx+10h],0 ds:0023:003b0060=0027f98c
0:000> 
eax=777a678c ebx=003b0050 ecx=00000000 edx=77b570b4 esi=0027fb98 edi=00000000
eip=77733d7b esp=0027f970 ebp=0027fb98 iopl=0         nv up ei pl nz na po nc
cs=001b  ss=0023  ds=0023  es=0023  fs=003b  gs=0000             efl=00000202
kernel32!SetUnhandledExceptionFilter+0xcc:
77733d7b 7406            je      kernel32!SetUnhandledExceptionFilter+0xd4 (77733d83) [br=0]
0:000> 
eax=777a678c ebx=003b0050 ecx=00000000 edx=77b570b4 esi=0027fb98 edi=00000000
eip=77733d7d esp=0027f970 ebp=0027fb98 iopl=0         nv up ei pl nz na po nc
cs=001b  ss=0023  ds=0023  es=0023  fs=003b  gs=0000             efl=00000202
kernel32!SetUnhandledExceptionFilter+0xce:
77733d7d 8d4314          lea     eax,[ebx+14h]
0:000> 
eax=003b0064 ebx=003b0050 ecx=00000000 edx=77b570b4 esi=0027fb98 edi=00000000
eip=77733d80 esp=0027f970 ebp=0027fb98 iopl=0         nv up ei pl nz na po nc
cs=001b  ss=0023  ds=0023  es=0023  fs=003b  gs=0000             efl=00000202
kernel32!SetUnhandledExceptionFilter+0xd1:
77733d80 894310          mov     dword ptr [ebx+10h],eax ds:0023:003b0060=0027f98c
0:000> 
eax=003b0064 ebx=003b0050 ecx=00000000 edx=77b570b4 esi=0027fb98 edi=00000000
eip=77733d83 esp=0027f970 ebp=0027fb98 iopl=0         nv up ei pl nz na po nc
cs=001b  ss=0023  ds=0023  es=0023  fs=003b  gs=0000             efl=00000202
kernel32!SetUnhandledExceptionFilter+0xd4:
77733d83 8b4508          mov     eax,dword ptr [ebp+8] ss:0023:0027fba0=b2dd7136
0:000> 
eax=b2dd7136 ebx=003b0050 ecx=00000000 edx=77b570b4 esi=0027fb98 edi=00000000
eip=77733d86 esp=0027f970 ebp=0027fb98 iopl=0         nv up ei pl nz na po nc
cs=001b  ss=0023  ds=0023  es=0023  fs=003b  gs=0000             efl=00000202
kernel32!SetUnhandledExceptionFilter+0xd7:
77733d86 8b357c657a77    mov     esi,dword ptr [kernel32!BasepCurrentTopLevelFilter (777a657c)] ds:0023:777a657c=b335577e
0:000> 
eax=b2dd7136 ebx=003b0050 ecx=00000000 edx=77b570b4 esi=b335577e edi=00000000
eip=77733d8c esp=0027f970 ebp=0027fb98 iopl=0         nv up ei pl nz na po nc
cs=001b  ss=0023  ds=0023  es=0023  fs=003b  gs=0000             efl=00000202
kernel32!SetUnhandledExceptionFilter+0xdd:
77733d8c 688c677a77      push    offset kernel32!BasepUEFLock (777a678c)
0:000> 
eax=b2dd7136 ebx=003b0050 ecx=00000000 edx=77b570b4 esi=b335577e edi=00000000
eip=77733d91 esp=0027f96c ebp=0027fb98 iopl=0         nv up ei pl nz na po nc
cs=001b  ss=0023  ds=0023  es=0023  fs=003b  gs=0000             efl=00000202
kernel32!SetUnhandledExceptionFilter+0xe2:
77733d91 a37c657a77      mov     dword ptr [kernel32!BasepCurrentTopLevelFilter (777a657c)],eax ds:0023:777a657c=b335577e
0:000> 
eax=b2dd7136 ebx=003b0050 ecx=00000000 edx=77b570b4 esi=b335577e edi=00000000
eip=77733d96 esp=0027f96c ebp=0027fb98 iopl=0         nv up ei pl nz na po nc
cs=001b  ss=0023  ds=0023  es=0023  fs=003b  gs=0000             efl=00000202
kernel32!SetUnhandledExceptionFilter+0xe7:
77733d96 ff1570136e77    call    dword ptr [kernel32!_imp__RtlReleaseSRWLockExclusive (776e1370)] ds:0023:776e1370={ntdll!RtlReleaseSRWLockExclusive (77b63324)}
0:000> 
eax=777a678c ebx=003b0050 ecx=00000001 edx=77b570b4 esi=b335577e edi=00000000
eip=77733d9c esp=0027f970 ebp=0027fb98 iopl=0         nv up ei pl zr na pe nc
cs=001b  ss=0023  ds=0023  es=0023  fs=003b  gs=0000             efl=00000246
kernel32!SetUnhandledExceptionFilter+0xed:
77733d9c 56              push    esi
0:000> 
eax=777a678c ebx=003b0050 ecx=00000001 edx=77b570b4 esi=b335577e edi=00000000
eip=77733d9d esp=0027f96c ebp=0027fb98 iopl=0         nv up ei pl zr na pe nc
cs=001b  ss=0023  ds=0023  es=0023  fs=003b  gs=0000             efl=00000246
kernel32!SetUnhandledExceptionFilter+0xee:
77733d9d ff1568166e77    call    dword ptr [kernel32!_imp__RtlDecodePointer (776e1668)] ds:0023:776e1668={ntdll!RtlDecodePointer (77b6cd10)}
0:000> 
eax=00000000 ebx=003b0050 ecx=0027f901 edx=77b570b4 esi=b335577e edi=00000000
eip=77733da3 esp=0027f970 ebp=0027fb98 iopl=0         nv up ei pl zr na pe nc
cs=001b  ss=0023  ds=0023  es=0023  fs=003b  gs=0000             efl=00000246
kernel32!SetUnhandledExceptionFilter+0xf4:
77733da3 8bf0            mov     esi,eax
0:000> 
eax=00000000 ebx=003b0050 ecx=0027f901 edx=77b570b4 esi=00000000 edi=00000000
eip=77733da5 esp=0027f970 ebp=0027fb98 iopl=0         nv up ei pl zr na pe nc
cs=001b  ss=0023  ds=0023  es=0023  fs=003b  gs=0000             efl=00000246
kernel32!SetUnhandledExceptionFilter+0xf6:
77733da5 85f6            test    esi,esi
0:000> 
eax=00000000 ebx=003b0050 ecx=0027f901 edx=77b570b4 esi=00000000 edi=00000000
eip=77733da7 esp=0027f970 ebp=0027fb98 iopl=0         nv up ei pl zr na pe nc
cs=001b  ss=0023  ds=0023  es=0023  fs=003b  gs=0000             efl=00000246
kernel32!SetUnhandledExceptionFilter+0xf8:
77733da7 7410            je      kernel32!SetUnhandledExceptionFilter+0x108 (77733db9) [br=1]
0:000> 
eax=00000000 ebx=003b0050 ecx=0027f901 edx=77b570b4 esi=00000000 edi=00000000
eip=77733db9 esp=0027f970 ebp=0027fb98 iopl=0         nv up ei pl zr na pe nc
cs=001b  ss=0023  ds=0023  es=0023  fs=003b  gs=0000             efl=00000246
kernel32!SetUnhandledExceptionFilter+0x108:
77733db9 8bc6            mov     eax,esi
0:000> 
eax=00000000 ebx=003b0050 ecx=0027f901 edx=77b570b4 esi=00000000 edi=00000000
eip=77733dbb esp=0027f970 ebp=0027fb98 iopl=0         nv up ei pl zr na pe nc
cs=001b  ss=0023  ds=0023  es=0023  fs=003b  gs=0000             efl=00000246
kernel32!SetUnhandledExceptionFilter+0x10a:
77733dbb 5e              pop     esi
0:000> 
eax=00000000 ebx=003b0050 ecx=0027f901 edx=77b570b4 esi=00f420c4 edi=00000000
eip=77733dbc esp=0027f974 ebp=0027fb98 iopl=0         nv up ei pl zr na pe nc
cs=001b  ss=0023  ds=0023  es=0023  fs=003b  gs=0000             efl=00000246
kernel32!SetUnhandledExceptionFilter+0x10b:
77733dbc 5b              pop     ebx
0:000> 
eax=00000000 ebx=00000000 ecx=0027f901 edx=77b570b4 esi=00f420c4 edi=00000000
eip=77733dbd esp=0027f978 ebp=0027fb98 iopl=0         nv up ei pl zr na pe nc
cs=001b  ss=0023  ds=0023  es=0023  fs=003b  gs=0000             efl=00000246
kernel32!SetUnhandledExceptionFilter+0x10c:
77733dbd c9              leave
0:000> 
eax=00000000 ebx=00000000 ecx=0027f901 edx=77b570b4 esi=00f420c4 edi=00000000
eip=77733dbe esp=0027fb9c ebp=0027fba4 iopl=0         nv up ei pl zr na pe nc
cs=001b  ss=0023  ds=0023  es=0023  fs=003b  gs=0000             efl=00000246
kernel32!SetUnhandledExceptionFilter+0x10d:
77733dbe c20400          ret     4
0:000> 
eax=00000000 ebx=00000000 ecx=0027f901 edx=77b570b4 esi=00f420c4 edi=00000000
eip=60efddc1 esp=0027fba4 ebp=0027fba4 iopl=0         nv up ei pl zr na pe nc
cs=001b  ss=0023  ds=0023  es=0023  fs=003b  gs=0000             efl=00000246
MSVCR120!_crtSetUnhandledExceptionFilter+0xc:
60efddc1 5d              pop     ebp
0:000> 
eax=00000000 ebx=00000000 ecx=0027f901 edx=77b570b4 esi=00f420c4 edi=00000000
eip=60efddc2 esp=0027fba8 ebp=0027fbb8 iopl=0         nv up ei pl zr na pe nc
cs=001b  ss=0023  ds=0023  es=0023  fs=003b  gs=0000             efl=00000246
MSVCR120!_crtSetUnhandledExceptionFilter+0xd:
60efddc2 c3              ret
0:000> 
eax=00000000 ebx=00000000 ecx=0027f901 edx=77b570b4 esi=00f420c4 edi=00000000
eip=00f4136f esp=0027fbac ebp=0027fbb8 iopl=0         nv up ei pl zr na pe nc
cs=001b  ss=0023  ds=0023  es=0023  fs=003b  gs=0000             efl=00000246
emet2!__CxxSetUnhandledExceptionFilter+0xa:
00f4136f 59              pop     ecx
0:000> 
eax=00000000 ebx=00000000 ecx=00f41324 edx=77b570b4 esi=00f420c4 edi=00000000
eip=00f41370 esp=0027fbb0 ebp=0027fbb8 iopl=0         nv up ei pl zr na pe nc
cs=001b  ss=0023  ds=0023  es=0023  fs=003b  gs=0000             efl=00000246
emet2!__CxxSetUnhandledExceptionFilter+0xb:
00f41370 33c0            xor     eax,eax
0:000> 
eax=00000000 ebx=00000000 ecx=00f41324 edx=77b570b4 esi=00f420c4 edi=00000000
eip=00f41372 esp=0027fbb0 ebp=0027fbb8 iopl=0         nv up ei pl zr na pe nc
cs=001b  ss=0023  ds=0023  es=0023  fs=003b  gs=0000             efl=00000246
emet2!__CxxSetUnhandledExceptionFilter+0xd:
00f41372 c3              ret
0:000> 
eax=00000000 ebx=00000000 ecx=00f41324 edx=77b570b4 esi=00f420c4 edi=00000000
eip=60eed659 esp=0027fbb4 ebp=0027fbb8 iopl=0         nv up ei pl zr na pe nc
cs=001b  ss=0023  ds=0023  es=0023  fs=003b  gs=0000             efl=00000246
MSVCR120!initterm_e+0x1a:
60eed659 83c604          add     esi,4
0:000> 
eax=00000000 ebx=00000000 ecx=00f41324 edx=77b570b4 esi=00f420c8 edi=00000000
eip=60eed65c esp=0027fbb4 ebp=0027fbb8 iopl=0         nv up ei pl nz na po nc
cs=001b  ss=0023  ds=0023  es=0023  fs=003b  gs=0000             efl=00000202
MSVCR120!initterm_e+0x1d:
60eed65c ebea            jmp     MSVCR120!initterm_e+0x9 (60eed648)
0:000> 
eax=00000000 ebx=00000000 ecx=00f41324 edx=77b570b4 esi=00f420c8 edi=00000000
eip=60eed648 esp=0027fbb4 ebp=0027fbb8 iopl=0         nv up ei pl nz na po nc
cs=001b  ss=0023  ds=0023  es=0023  fs=003b  gs=0000             efl=00000202
MSVCR120!initterm_e+0x9:
60eed648 3b750c          cmp     esi,dword ptr [ebp+0Ch] ss:0023:0027fbc4={emet2!__xi_z (00f420c8)}
0:000> 
eax=00000000 ebx=00000000 ecx=00f41324 edx=77b570b4 esi=00f420c8 edi=00000000
eip=60eed64b esp=0027fbb4 ebp=0027fbb8 iopl=0         nv up ei pl zr na pe nc
cs=001b  ss=0023  ds=0023  es=0023  fs=003b  gs=0000             efl=00000246
MSVCR120!initterm_e+0xc:
60eed64b 7311            jae     MSVCR120!initterm_e+0x1f (60eed65e)     [br=1]
0:000> 
eax=00000000 ebx=00000000 ecx=00f41324 edx=77b570b4 esi=00f420c8 edi=00000000
eip=60eed65e esp=0027fbb4 ebp=0027fbb8 iopl=0         nv up ei pl zr na pe nc
cs=001b  ss=0023  ds=0023  es=0023  fs=003b  gs=0000             efl=00000246
MSVCR120!initterm_e+0x1f:
60eed65e 5e              pop     esi
0:000> 
eax=00000000 ebx=00000000 ecx=00f41324 edx=77b570b4 esi=00000001 edi=00000000
eip=60eed65f esp=0027fbb8 ebp=0027fbb8 iopl=0         nv up ei pl zr na pe nc
cs=001b  ss=0023  ds=0023  es=0023  fs=003b  gs=0000             efl=00000246
MSVCR120!initterm_e+0x20:
60eed65f 5d              pop     ebp
0:000> 
eax=00000000 ebx=00000000 ecx=00f41324 edx=77b570b4 esi=00000001 edi=00000000
eip=60eed660 esp=0027fbbc ebp=0027fbf4 iopl=0         nv up ei pl zr na pe nc
cs=001b  ss=0023  ds=0023  es=0023  fs=003b  gs=0000             efl=00000246
MSVCR120!initterm_e+0x21:
60eed660 c3              ret
0:000> 
eax=00000000 ebx=00000000 ecx=00f41324 edx=77b570b4 esi=00000001 edi=00000000
eip=00f4121f esp=0027fbc0 ebp=0027fbf4 iopl=0         nv up ei pl zr na pe nc
cs=001b  ss=0023  ds=0023  es=0023  fs=003b  gs=0000             efl=00000246
emet2!__tmainCRTStartup+0x6a:
00f4121f 59              pop     ecx
0:000> 
eax=00000000 ebx=00000000 ecx=00f420b8 edx=77b570b4 esi=00000001 edi=00000000
eip=00f41220 esp=0027fbc4 ebp=0027fbf4 iopl=0         nv up ei pl zr na pe nc
cs=001b  ss=0023  ds=0023  es=0023  fs=003b  gs=0000             efl=00000246
emet2!__tmainCRTStartup+0x6b:
00f41220 59              pop     ecx
0:000> 
eax=00000000 ebx=00000000 ecx=00f420c8 edx=77b570b4 esi=00000001 edi=00000000
eip=00f41221 esp=0027fbc8 ebp=0027fbf4 iopl=0         nv up ei pl zr na pe nc
cs=001b  ss=0023  ds=0023  es=0023  fs=003b  gs=0000             efl=00000246
emet2!__tmainCRTStartup+0x6c:
00f41221 85c0            test    eax,eax
0:000> 
eax=00000000 ebx=00000000 ecx=00f420c8 edx=77b570b4 esi=00000001 edi=00000000
eip=00f41223 esp=0027fbc8 ebp=0027fbf4 iopl=0         nv up ei pl zr na pe nc
cs=001b  ss=0023  ds=0023  es=0023  fs=003b  gs=0000             efl=00000246
emet2!__tmainCRTStartup+0x6e:
00f41223 7417            je      emet2!__tmainCRTStartup+0x87 (00f4123c) [br=1]
0:000> 
eax=00000000 ebx=00000000 ecx=00f420c8 edx=77b570b4 esi=00000001 edi=00000000
eip=00f4123c esp=0027fbc8 ebp=0027fbf4 iopl=0         nv up ei pl zr na pe nc
cs=001b  ss=0023  ds=0023  es=0023  fs=003b  gs=0000             efl=00000246
emet2!__tmainCRTStartup+0x87:
00f4123c 39357433f400    cmp     dword ptr [emet2!__native_startup_state (00f43374)],esi ds:0023:00f43374=00000001
0:000> 
eax=00000000 ebx=00000000 ecx=00f420c8 edx=77b570b4 esi=00000001 edi=00000000
eip=00f41242 esp=0027fbc8 ebp=0027fbf4 iopl=0         nv up ei pl zr na pe nc
cs=001b  ss=0023  ds=0023  es=0023  fs=003b  gs=0000             efl=00000246
emet2!__tmainCRTStartup+0x8d:
00f41242 751b            jne     emet2!__tmainCRTStartup+0xaa (00f4125f) [br=0]
0:000> 
eax=00000000 ebx=00000000 ecx=00f420c8 edx=77b570b4 esi=00000001 edi=00000000
eip=00f41244 esp=0027fbc8 ebp=0027fbf4 iopl=0         nv up ei pl zr na pe nc
cs=001b  ss=0023  ds=0023  es=0023  fs=003b  gs=0000             efl=00000246
emet2!__tmainCRTStartup+0x8f:
00f41244 68b420f400      push    offset emet2!__xc_z (00f420b4)
0:000> 
eax=00000000 ebx=00000000 ecx=00f420c8 edx=77b570b4 esi=00000001 edi=00000000
eip=00f41249 esp=0027fbc4 ebp=0027fbf4 iopl=0         nv up ei pl zr na pe nc
cs=001b  ss=0023  ds=0023  es=0023  fs=003b  gs=0000             efl=00000246
emet2!__tmainCRTStartup+0x94:
00f41249 68ac20f400      push    offset emet2!__xc_a (00f420ac)
0:000> 
eax=00000000 ebx=00000000 ecx=00f420c8 edx=77b570b4 esi=00000001 edi=00000000
eip=00f4124e esp=0027fbc0 ebp=0027fbf4 iopl=0         nv up ei pl zr na pe nc
cs=001b  ss=0023  ds=0023  es=0023  fs=003b  gs=0000             efl=00000246
emet2!__tmainCRTStartup+0x99:
00f4124e e881040000      call    emet2!initterm (00f416d4)
0:000> 
eax=00000000 ebx=00000000 ecx=00f43034 edx=00000000 esi=00000001 edi=00000000
eip=00f41253 esp=0027fbc0 ebp=0027fbf4 iopl=0         nv up ei pl zr na pe nc
cs=001b  ss=0023  ds=0023  es=0023  fs=003b  gs=0000             efl=00000246
emet2!__tmainCRTStartup+0x9e:
00f41253 59              pop     ecx
0:000> 
eax=00000000 ebx=00000000 ecx=00f420ac edx=00000000 esi=00000001 edi=00000000
eip=00f41254 esp=0027fbc4 ebp=0027fbf4 iopl=0         nv up ei pl zr na pe nc
cs=001b  ss=0023  ds=0023  es=0023  fs=003b  gs=0000             efl=00000246
emet2!__tmainCRTStartup+0x9f:
00f41254 59              pop     ecx
0:000> 
eax=00000000 ebx=00000000 ecx=00f420b4 edx=00000000 esi=00000001 edi=00000000
eip=00f41255 esp=0027fbc8 ebp=0027fbf4 iopl=0         nv up ei pl zr na pe nc
cs=001b  ss=0023  ds=0023  es=0023  fs=003b  gs=0000             efl=00000246
emet2!__tmainCRTStartup+0xa0:
00f41255 c7057433f40002000000 mov dword ptr [emet2!__native_startup_state (00f43374)],2 ds:0023:00f43374=00000001
0:000> 
eax=00000000 ebx=00000000 ecx=00f420b4 edx=00000000 esi=00000001 edi=00000000
eip=00f4125f esp=0027fbc8 ebp=0027fbf4 iopl=0         nv up ei pl zr na pe nc
cs=001b  ss=0023  ds=0023  es=0023  fs=003b  gs=0000             efl=00000246
emet2!__tmainCRTStartup+0xaa:
00f4125f 85ff            test    edi,edi
0:000> 
eax=00000000 ebx=00000000 ecx=00f420b4 edx=00000000 esi=00000001 edi=00000000
eip=00f41261 esp=0027fbc8 ebp=0027fbf4 iopl=0         nv up ei pl zr na pe nc
cs=001b  ss=0023  ds=0023  es=0023  fs=003b  gs=0000             efl=00000246
emet2!__tmainCRTStartup+0xac:
00f41261 7509            jne     emet2!__tmainCRTStartup+0xb7 (00f4126c) [br=0]
0:000> 
eax=00000000 ebx=00000000 ecx=00f420b4 edx=00000000 esi=00000001 edi=00000000
eip=00f41263 esp=0027fbc8 ebp=0027fbf4 iopl=0         nv up ei pl zr na pe nc
cs=001b  ss=0023  ds=0023  es=0023  fs=003b  gs=0000             efl=00000246
emet2!__tmainCRTStartup+0xae:
00f41263 33c0            xor     eax,eax
0:000> 
eax=00000000 ebx=00000000 ecx=00f420b4 edx=00000000 esi=00000001 edi=00000000
eip=00f41265 esp=0027fbc8 ebp=0027fbf4 iopl=0         nv up ei pl zr na pe nc
cs=001b  ss=0023  ds=0023  es=0023  fs=003b  gs=0000             efl=00000246
emet2!__tmainCRTStartup+0xb0:
00f41265 b97033f400      mov     ecx,offset emet2!__native_startup_lock (00f43370)
0:000> 
eax=00000000 ebx=00000000 ecx=00f43370 edx=00000000 esi=00000001 edi=00000000
eip=00f4126a esp=0027fbc8 ebp=0027fbf4 iopl=0         nv up ei pl zr na pe nc
cs=001b  ss=0023  ds=0023  es=0023  fs=003b  gs=0000             efl=00000246
emet2!__tmainCRTStartup+0xb5:
00f4126a 8701            xchg    eax,dword ptr [ecx]  ds:0023:00f43370=00280000
0:000> 
eax=00280000 ebx=00000000 ecx=00f43370 edx=00000000 esi=00000001 edi=00000000
eip=00f4126c esp=0027fbc8 ebp=0027fbf4 iopl=0         nv up ei pl zr na pe nc
cs=001b  ss=0023  ds=0023  es=0023  fs=003b  gs=0000             efl=00000246
emet2!__tmainCRTStartup+0xb7:
00f4126c 833d8033f40000  cmp     dword ptr [emet2!__dyn_tls_init_callback (00f43380)],0 ds:0023:00f43380=00000000
0:000> 
eax=00280000 ebx=00000000 ecx=00f43370 edx=00000000 esi=00000001 edi=00000000
eip=00f41273 esp=0027fbc8 ebp=0027fbf4 iopl=0         nv up ei pl zr na pe nc
cs=001b  ss=0023  ds=0023  es=0023  fs=003b  gs=0000             efl=00000246
emet2!__tmainCRTStartup+0xbe:
00f41273 7419            je      emet2!__tmainCRTStartup+0xd9 (00f4128e) [br=1]
0:000> 
eax=00280000 ebx=00000000 ecx=00f43370 edx=00000000 esi=00000001 edi=00000000
eip=00f4128e esp=0027fbc8 ebp=0027fbf4 iopl=0         nv up ei pl zr na pe nc
cs=001b  ss=0023  ds=0023  es=0023  fs=003b  gs=0000             efl=00000246
emet2!__tmainCRTStartup+0xd9:
00f4128e 8b0d3430f400    mov     ecx,dword ptr [emet2!envp (00f43034)] ds:0023:00f43034=003b1e50
0:000> 
eax=00280000 ebx=00000000 ecx=003b1e50 edx=00000000 esi=00000001 edi=00000000
eip=00f41294 esp=0027fbc8 ebp=0027fbf4 iopl=0         nv up ei pl zr na pe nc
cs=001b  ss=0023  ds=0023  es=0023  fs=003b  gs=0000             efl=00000246
emet2!__tmainCRTStartup+0xdf:
00f41294 a14420f400      mov     eax,dword ptr [emet2!_imp____initenv (00f42044)] ds:0023:00f42044={MSVCR120!_initenv (60faf62c)}
0:000> 
eax=60faf62c ebx=00000000 ecx=003b1e50 edx=00000000 esi=00000001 edi=00000000
eip=00f41299 esp=0027fbc8 ebp=0027fbf4 iopl=0         nv up ei pl zr na pe nc
cs=001b  ss=0023  ds=0023  es=0023  fs=003b  gs=0000             efl=00000246
emet2!__tmainCRTStartup+0xe4:
00f41299 8908            mov     dword ptr [eax],ecx  ds:0023:60faf62c=00000000
0:000> 
eax=60faf62c ebx=00000000 ecx=003b1e50 edx=00000000 esi=00000001 edi=00000000
eip=00f4129b esp=0027fbc8 ebp=0027fbf4 iopl=0         nv up ei pl zr na pe nc
cs=001b  ss=0023  ds=0023  es=0023  fs=003b  gs=0000             efl=00000246
emet2!__tmainCRTStartup+0xe6:
00f4129b ff353430f400    push    dword ptr [emet2!envp (00f43034)] ds:0023:00f43034=003b1e50
0:000> 
eax=60faf62c ebx=00000000 ecx=003b1e50 edx=00000000 esi=00000001 edi=00000000
eip=00f412a1 esp=0027fbc4 ebp=0027fbf4 iopl=0         nv up ei pl zr na pe nc
cs=001b  ss=0023  ds=0023  es=0023  fs=003b  gs=0000             efl=00000246
emet2!__tmainCRTStartup+0xec:
00f412a1 ff353030f400    push    dword ptr [emet2!argv (00f43030)] ds:0023:00f43030=003b3c10
0:000> 
eax=60faf62c ebx=00000000 ecx=003b1e50 edx=00000000 esi=00000001 edi=00000000
eip=00f412a7 esp=0027fbc0 ebp=0027fbf4 iopl=0         nv up ei pl zr na pe nc
cs=001b  ss=0023  ds=0023  es=0023  fs=003b  gs=0000             efl=00000246
emet2!__tmainCRTStartup+0xf2:
00f412a7 ff352c30f400    push    dword ptr [emet2!argc (00f4302c)] ds:0023:00f4302c=00000001
0:000> 
eax=60faf62c ebx=00000000 ecx=003b1e50 edx=00000000 esi=00000001 edi=00000000
eip=00f412ad esp=0027fbbc ebp=0027fbf4 iopl=0         nv up ei pl zr na pe nc
cs=001b  ss=0023  ds=0023  es=0023  fs=003b  gs=0000             efl=00000246
emet2!__tmainCRTStartup+0xf8:
00f412ad e8defdffff      call    emet2!main (00f41090)
0:000> 
Breakpoint 0 hit
eax=60faf62c ebx=00000000 ecx=003b1e50 edx=00000000 esi=00000001 edi=00000000
eip=00f41090 esp=0027fbb8 ebp=0027fbf4 iopl=0         nv up ei pl zr na pe nc
cs=001b  ss=0023  ds=0023  es=0023  fs=003b  gs=0000             efl=00000246
emet2!main:
00f41090 55              push    ebp
0:000> 
eax=00f4109d ebx=00000000 ecx=003b1e50 edx=00000000 esi=00000001 edi=00000000
eip=00f4109d esp=0027d4a4 ebp=0027fbb4 iopl=0         nv up ei pl nz na pe nc
cs=001b  ss=0023  ds=0023  es=0023  fs=003b  gs=0000             efl=00000206
emet2!main+0xd:
00f4109d 33c0            xor     eax,eax
0:000> 
eax=00002710 ebx=00000000 ecx=003b1e50 edx=00000000 esi=00000001 edi=00000000
eip=00f410a8 esp=0027d4a4 ebp=0027fbb4 iopl=0         nv up ei pl zr na pe nc
cs=001b  ss=0023  ds=0023  es=0023  fs=003b  gs=0000             efl=00000246
emet2!main+0x18:
00f410a8 e853ffffff      call    emet2!f (00f41000)
0:000> 
Breakpoint 1 hit
eax=000001c2 ebx=60fae060 ecx=60f53189 edx=003b71c2 esi=00000001 edi=000001bd
eip=00f4107f esp=0027d474 ebp=0027d49c iopl=0         nv up ei pl nz ac pe nc
cs=001b  ss=0023  ds=0023  es=0023  fs=003b  gs=0000             efl=00000216
emet2!f+0x7f:
00f4107f 33c0            xor     eax,eax
0:000> 
eax=00000000 ebx=00000000 ecx=60f53189 edx=003b71c2 esi=00000001 edi=00000000
eip=00f41083 esp=0027d47c ebp=0027d49c iopl=0         nv up ei pl zr na pe nc
cs=001b  ss=0023  ds=0023  es=0023  fs=003b  gs=0000             efl=00000246
emet2!f+0x83:
00f41083 8be5            mov     esp,ebp
0:000> 
eax=00000000 ebx=00000000 ecx=60f53189 edx=003b71c2 esi=00000001 edi=00000000
eip=60f87081 esp=0027d4a4 ebp=61616161 iopl=0         nv up ei pl zr na pe nc
cs=001b  ss=0023  ds=0023  es=0023  fs=003b  gs=0000             efl=00000246
MSVCR120!_libm_sse2_logf+0x345:
60f87081 c3              ret
0:000> 
eax=00000000 ebx=00000000 ecx=60f53189 edx=003b71c2 esi=00000001 edi=00000000
eip=60fab64c esp=0027d4a8 ebp=61616161 iopl=0         nv up ei pl zr na pe nc
cs=001b  ss=0023  ds=0023  es=0023  fs=003b  gs=0000             efl=00000246
MSVCR120!truncl+0x8781:
60fab64c 59              pop     ecx
0:000> 
eax=00000000 ebx=00000000 ecx=776e1924 edx=003b71c2 esi=00000001 edi=00000000
eip=60fab64d esp=0027d4ac ebp=61616161 iopl=0         nv up ei pl zr na pe nc
cs=001b  ss=0023  ds=0023  es=0023  fs=003b  gs=0000             efl=00000246
MSVCR120!truncl+0x8782:
60fab64d c3              ret
0:000> 
eax=00000000 ebx=00000000 ecx=776e1924 edx=003b71c2 esi=00000001 edi=00000000
eip=60f38f5f esp=0027d4b0 ebp=61616161 iopl=0         nv up ei pl zr na pe nc
cs=001b  ss=0023  ds=0023  es=0023  fs=003b  gs=0000             efl=00000246
MSVCR120!Concurrency::details::_Scheduler::_GetScheduler:
60f38f5f 8b01            mov     eax,dword ptr [ecx]  ds:0023:776e1924={KERNELBASE!VirtualProtect (75d922bd)}
0:000> 
eax=75d922bd ebx=00000000 ecx=776e1924 edx=003b71c2 esi=00000001 edi=00000000
eip=60f38f61 esp=0027d4b0 ebp=61616161 iopl=0         nv up ei pl zr na pe nc
cs=001b  ss=0023  ds=0023  es=0023  fs=003b  gs=0000             efl=00000246
MSVCR120!Concurrency::details::_Scheduler::_GetScheduler+0x2:
60f38f61 c3              ret
0:000> 
eax=75d922bd ebx=00000000 ecx=776e1924 edx=003b71c2 esi=00000001 edi=00000000
eip=77b99d85 esp=0027d4b4 ebp=61616161 iopl=0         nv up ei pl zr na pe nc
cs=001b  ss=0023  ds=0023  es=0023  fs=003b  gs=0000             efl=00000246
ntdll!RtlpCoalesceFreeBlocks+0x8fa:
77b99d85 96              xchg    eax,esi
0:000> 
eax=00000001 ebx=00000000 ecx=776e1924 edx=003b71c2 esi=75d922bd edi=00000000
eip=77b99d86 esp=0027d4b4 ebp=61616161 iopl=0         nv up ei pl zr na pe nc
cs=001b  ss=0023  ds=0023  es=0023  fs=003b  gs=0000             efl=00000246
ntdll!RtlpCoalesceFreeBlocks+0x8fb:
77b99d86 c3              ret
0:000> g
Breakpoint 2 hit
eax=90909090 ebx=00000400 ecx=777a666e edx=00000040 esi=75d922bd edi=60f392bd
eip=777107f0 esp=0027d504 ebp=77bb0ad0 iopl=0         nv up ei pl nz ac po cy
cs=001b  ss=0023  ds=0023  es=0023  fs=003b  gs=0000             efl=00000213
kernel32!`string'+0x258:
777107f0 60              pushad
0:000> g
(dc4.13e8): Guard page violation - code 80000001 (first chance)
First chance exceptions are reported before any exception handling.
This exception may be expected and handled.
eax=000000d0 ebx=00036190 ecx=00382010 edx=00000040 esi=77b10000 edi=00382308
eip=0027d5cb esp=0027d4c0 ebp=0027d4e0 iopl=0         nv up ei pl nz na pe nc
cs=001b  ss=0023  ds=0023  es=0023  fs=003b  gs=0000             efl=00010206
0027d5cb 8b4c330c        mov     ecx,dword ptr [ebx+esi+0Ch] ds:0023:77b4619c=0003af44
0:000> p
eax=000000d0 ebx=00036190 ecx=00382010 edx=00000040 esi=77b10000 edi=00382308
eip=77b57009 esp=0027d078 ebp=0027d4e0 iopl=0         nv up ei pl nz na pe nc
cs=001b  ss=0023  ds=0023  es=0023  fs=003b  gs=0000             efl=00000206
ntdll!KiUserExceptionDispatcher+0x1:
77b57009 8b4c2404        mov     ecx,dword ptr [esp+4] ss:0023:0027d07c=0027d09c
0:000> p
eax=000000d0 ebx=00036190 ecx=0027d09c edx=00000040 esi=77b10000 edi=00382308
eip=77b5700d esp=0027d078 ebp=0027d4e0 iopl=0         nv up ei pl nz na pe nc
cs=001b  ss=0023  ds=0023  es=0023  fs=003b  gs=0000             efl=00000206
ntdll!KiUserExceptionDispatcher+0x5:
77b5700d 8b1c24          mov     ebx,dword ptr [esp]  ss:0023:0027d078=0027d080
0:000> 
eax=000000d0 ebx=0027d080 ecx=0027d09c edx=00000040 esi=77b10000 edi=00382308
eip=77b57010 esp=0027d078 ebp=0027d4e0 iopl=0         nv up ei pl nz na pe nc
cs=001b  ss=0023  ds=0023  es=0023  fs=003b  gs=0000             efl=00000206
ntdll!KiUserExceptionDispatcher+0x8:
77b57010 51              push    ecx
0:000> 
eax=000000d0 ebx=0027d080 ecx=0027d09c edx=00000040 esi=77b10000 edi=00382308
eip=77b57011 esp=0027d074 ebp=0027d4e0 iopl=0         nv up ei pl nz na pe nc
cs=001b  ss=0023  ds=0023  es=0023  fs=003b  gs=0000             efl=00000206
ntdll!KiUserExceptionDispatcher+0x9:
77b57011 53              push    ebx
0:000> 
eax=000000d0 ebx=0027d080 ecx=0027d09c edx=00000040 esi=77b10000 edi=00382308
eip=77b57012 esp=0027d070 ebp=0027d4e0 iopl=0         nv up ei pl nz na pe nc
cs=001b  ss=0023  ds=0023  es=0023  fs=003b  gs=0000             efl=00000206
ntdll!KiUserExceptionDispatcher+0xa:
77b57012 e88588fdff      call    ntdll!RtlDispatchException (77b2f89c)
0:000> 
eax=7ffd6001 ebx=0027d080 ecx=00000003 edx=00000008 esi=77b10000 edi=00382308
eip=77b57017 esp=0027d078 ebp=0027d4e0 iopl=0         nv up ei pl zr na pe nc
cs=001b  ss=0023  ds=0023  es=0023  fs=003b  gs=0000             efl=00000246
ntdll!KiUserExceptionDispatcher+0xf:
77b57017 0ac0            or      al,al
0:000> 
eax=7ffd6001 ebx=0027d080 ecx=00000003 edx=00000008 esi=77b10000 edi=00382308
eip=77b57019 esp=0027d078 ebp=0027d4e0 iopl=0         nv up ei pl nz na po nc
cs=001b  ss=0023  ds=0023  es=0023  fs=003b  gs=0000             efl=00000202
ntdll!KiUserExceptionDispatcher+0x11:
77b57019 740c            je      ntdll!KiUserExceptionDispatcher+0x1f (77b57027) [br=0]
0:000> 
eax=7ffd6001 ebx=0027d080 ecx=00000003 edx=00000008 esi=77b10000 edi=00382308
eip=77b5701b esp=0027d078 ebp=0027d4e0 iopl=0         nv up ei pl nz na po nc
cs=001b  ss=0023  ds=0023  es=0023  fs=003b  gs=0000             efl=00000202
ntdll!KiUserExceptionDispatcher+0x13:
77b5701b 5b              pop     ebx
0:000> 
eax=7ffd6001 ebx=0027d080 ecx=00000003 edx=00000008 esi=77b10000 edi=00382308
eip=77b5701c esp=0027d07c ebp=0027d4e0 iopl=0         nv up ei pl nz na po nc
cs=001b  ss=0023  ds=0023  es=0023  fs=003b  gs=0000             efl=00000202
ntdll!KiUserExceptionDispatcher+0x14:
77b5701c 59              pop     ecx
0:000> 
eax=7ffd6001 ebx=0027d080 ecx=0027d09c edx=00000008 esi=77b10000 edi=00382308
eip=77b5701d esp=0027d080 ebp=0027d4e0 iopl=0         nv up ei pl nz na po nc
cs=001b  ss=0023  ds=0023  es=0023  fs=003b  gs=0000             efl=00000202
ntdll!KiUserExceptionDispatcher+0x15:
77b5701d 6a00            push    0
0:000> 
eax=7ffd6001 ebx=0027d080 ecx=0027d09c edx=00000008 esi=77b10000 edi=00382308
eip=77b5701f esp=0027d07c ebp=0027d4e0 iopl=0         nv up ei pl nz na po nc
cs=001b  ss=0023  ds=0023  es=0023  fs=003b  gs=0000             efl=00000202
ntdll!KiUserExceptionDispatcher+0x17:
77b5701f 51              push    ecx
0:000> 
eax=7ffd6001 ebx=0027d080 ecx=0027d09c edx=00000008 esi=77b10000 edi=00382308
eip=77b57020 esp=0027d078 ebp=0027d4e0 iopl=0         nv up ei pl nz na po nc
cs=001b  ss=0023  ds=0023  es=0023  fs=003b  gs=0000             efl=00000202
ntdll!KiUserExceptionDispatcher+0x18:
77b57020 e843e5ffff      call    ntdll!ZwContinue (77b55568)
0:000> 
WARNING: This break is not a step/trace completion.
The last command has been cleared to prevent
accidental continuation of this unrelated event.
Check the event, location and thread before resuming.
(dc4.13e8): Single step exception - code 80000004 (first chance)
First chance exceptions are reported before any exception handling.
This exception may be expected and handled.
eax=000000d0 ebx=00036190 ecx=0003af44 edx=00000040 esi=77b10000 edi=00382308
eip=0027d5cf esp=0027d4c0 ebp=0027d4e0 iopl=0         nv up ei pl nz na pe nc
cs=001b  ss=0023  ds=0023  es=0023  fs=003b  gs=0000             efl=00000206
0027d5cf 03ce            add     ecx,esi
0:000> u eip
0027d5cf 03ce            add     ecx,esi
0027d5d1 e896ffffff      call    0027d56c
0027d5d6 8b4c3320        mov     ecx,dword ptr [ebx+esi+20h]
0027d5da 8945f8          mov     dword ptr [ebp-8],eax
0027d5dd 03ce            add     ecx,esi
0027d5df 33c0            xor     eax,eax
0027d5e1 894df0          mov     dword ptr [ebp-10h],ecx
0027d5e4 8945fc          mov     dword ptr [ebp-4],eax
0:000> u eip-10
0027d5bf 4f              dec     edi
0027d5c0 8b463c          mov     eax,dword ptr [esi+3Ch]
0027d5c3 8b5c3078        mov     ebx,dword ptr [eax+esi+78h]
0027d5c7 85db            test    ebx,ebx
0027d5c9 7444            je      0027d60f
0027d5cb 8b4c330c        mov     ecx,dword ptr [ebx+esi+0Ch]
0027d5cf 03ce            add     ecx,esi
0027d5d1 e896ffffff      call    0027d56c
0:000> @In esi
       ^ Syntax error in '@In esi'
0:000> ln @esi
(77b3a5d4)   ntdll!`string'+0xffffffff`ffffffff   |  (77b127a4)   ntdll!`string'
0:000> ln @esi+@ebx
(77b46190)   ntdll!$$VProc_ImageExportDirectory   |  (77b551a8)   ntdll!NtAcceptConnectPort
Exact matches:
    ntdll!$$VProc_ImageExportDirectory = <no type information>
0:000> ln esi+ebx
(77b46190)   ntdll!$$VProc_ImageExportDirectory   |  (77b551a8)   ntdll!NtAcceptConnectPort
Exact matches:
    ntdll!$$VProc_ImageExportDirectory = <no type information>
0:000> !dh ntdll

File Type: DLL
FILE HEADER VALUES
     14C machine (i386)
       5 number of sections
4CE7B96E time date stamp Sat Nov 20 05:05:02 2010

       0 file pointer to symbol table
       0 number of symbols
      E0 size of optional header
    2102 characteristics
            Executable
            32 bit word machine
            DLL

OPTIONAL HEADER VALUES
     10B magic #
    9.00 linker version
   D5000 size of code
   63200 size of initialized data
       0 size of uninitialized data
       0 address of entry point
    1000 base of code
         ----- new -----
77b10000 image base
    1000 section alignment
     200 file alignment
       3 subsystem (Windows CUI)
    6.01 operating system version
    6.01 image version
    6.01 subsystem version
  13C000 size of image
     400 size of headers
  1490D9 checksum
00040000 size of stack reserve
00001000 size of stack commit
00100000 size of heap reserve
00001000 size of heap commit
     140  DLL characteristics
            Dynamic base
            NX compatible
   36190 [    F018] address [size] of Export Directory
       0 [       0] address [size] of Import Directory
   E0000 [   560D8] address [size] of Resource Directory
       0 [       0] address [size] of Exception Directory
  137000 [    3928] address [size] of Security Directory
  137000 [    4C3C] address [size] of Base Relocation Directory
   D5D08 [      38] address [size] of Debug Directory
       0 [       0] address [size] of Description Directory
       0 [       0] address [size] of Special Directory
       0 [       0] address [size] of Thread Storage Directory
   1E080 [      40] address [size] of Load Configuration Directory
       0 [       0] address [size] of Bound Import Directory
       0 [       0] address [size] of Import Address Table Directory
       0 [       0] address [size] of Delay Import Directory
       0 [       0] address [size] of COR20 Header Directory
       0 [       0] address [size] of Reserved Directory


SECTION HEADER #1
   .text name
   D4D66 virtual size
    1000 virtual address
   D4E00 size of raw data
     400 file pointer to raw data
       0 file pointer to relocation table
       0 file pointer to line numbers
       0 number of relocations
       0 number of line numbers
60000020 flags
         Code
         (no align specified)
         Execute Read


Debug Directories(2)
	Type       Size     Address  Pointer
	cv           22       d5d44    d5144	Format: RSDS, guid, 2, ntdll.pdb
	(    10)       4       d5d40    d5140

SECTION HEADER #2
      RT name
     1DC virtual size
   D6000 virtual address
     200 size of raw data
   D5200 file pointer to raw data
       0 file pointer to relocation table
       0 file pointer to line numbers
       0 number of relocations
       0 number of line numbers
60000020 flags
         Code
         (no align specified)
         Execute Read

SECTION HEADER #3
   .data name
    8064 virtual size
   D7000 virtual address
    6C00 size of raw data
   D5400 file pointer to raw data
       0 file pointer to relocation table
       0 file pointer to line numbers
       0 number of relocations
       0 number of line numbers
C0000040 flags
         Initialized Data
         (no align specified)
         Read Write

SECTION HEADER #4
   .rsrc name
   560D8 virtual size
   E0000 virtual address
   56200 size of raw data
   DC000 file pointer to raw data
       0 file pointer to relocation table
       0 file pointer to line numbers
       0 number of relocations
       0 number of line numbers
40000040 flags
         Initialized Data
         (no align specified)
         Read Only

SECTION HEADER #5
  .reloc name
    4C3C virtual size
  137000 virtual address
    4E00 size of raw data
  132200 file pointer to raw data
       0 file pointer to relocation table
       0 file pointer to line numbers
       0 number of relocations
       0 number of line numbers
42000040 flags
         Initialized Data
         Discardable
         (no align specified)
         Read Only
0:000> ? ntdll + 36910 == esi+ebx
Evaluate expression: 0 = 00000000
0:000> ? ntdll + 36190 == esi+ebx
Evaluate expression: 1 = 00000001
